Archive member included to satisfy reference by file (symbol)

/home/nathan/Documents/Misc/quartus-free/pkg/quartus-free/opt/altera/18.1/nios2eds/bin/gnu/H-x86_64-pc-linux-gnu/bin/../lib/gcc/nios2-elf/5.3.0/libgcc.a(lib2-divmod.o)
                              obj/default/mini_project_with_fake_camera.o (__udivsi3)
/home/nathan/Documents/Misc/quartus-free/pkg/quartus-free/opt/altera/18.1/nios2eds/bin/gnu/H-x86_64-pc-linux-gnu/bin/../lib/gcc/nios2-elf/5.3.0/../../../../../H-x86_64-pc-linux-gnu/nios2-elf/lib/libc.a(lib_a-malloc.o)
                              obj/default/mini_project_with_fake_camera.o (malloc)
/home/nathan/Documents/Misc/quartus-free/pkg/quartus-free/opt/altera/18.1/nios2eds/bin/gnu/H-x86_64-pc-linux-gnu/bin/../lib/gcc/nios2-elf/5.3.0/../../../../../H-x86_64-pc-linux-gnu/nios2-elf/lib/libc.a(lib_a-mallocr.o)
                              /home/nathan/Documents/Misc/quartus-free/pkg/quartus-free/opt/altera/18.1/nios2eds/bin/gnu/H-x86_64-pc-linux-gnu/bin/../lib/gcc/nios2-elf/5.3.0/../../../../../H-x86_64-pc-linux-gnu/nios2-elf/lib/libc.a(lib_a-malloc.o) (_malloc_r)
/home/nathan/Documents/Misc/quartus-free/pkg/quartus-free/opt/altera/18.1/nios2eds/bin/gnu/H-x86_64-pc-linux-gnu/bin/../lib/gcc/nios2-elf/5.3.0/../../../../../H-x86_64-pc-linux-gnu/nios2-elf/lib/libc.a(lib_a-printf.o)
                              obj/default/mini_project_with_fake_camera.o (printf)
/home/nathan/Documents/Misc/quartus-free/pkg/quartus-free/opt/altera/18.1/nios2eds/bin/gnu/H-x86_64-pc-linux-gnu/bin/../lib/gcc/nios2-elf/5.3.0/../../../../../H-x86_64-pc-linux-gnu/nios2-elf/lib/libc.a(lib_a-puts.o)
                              obj/default/mini_project_with_fake_camera.o (puts)
/home/nathan/Documents/Misc/quartus-free/pkg/quartus-free/opt/altera/18.1/nios2eds/bin/gnu/H-x86_64-pc-linux-gnu/bin/../lib/gcc/nios2-elf/5.3.0/../../../../../H-x86_64-pc-linux-gnu/nios2-elf/lib/libc.a(lib_a-sbrkr.o)
                              /home/nathan/Documents/Misc/quartus-free/pkg/quartus-free/opt/altera/18.1/nios2eds/bin/gnu/H-x86_64-pc-linux-gnu/bin/../lib/gcc/nios2-elf/5.3.0/../../../../../H-x86_64-pc-linux-gnu/nios2-elf/lib/libc.a(lib_a-mallocr.o) (_sbrk_r)
/home/nathan/Documents/Misc/quartus-free/pkg/quartus-free/opt/altera/18.1/nios2eds/bin/gnu/H-x86_64-pc-linux-gnu/bin/../lib/gcc/nios2-elf/5.3.0/../../../../../H-x86_64-pc-linux-gnu/nios2-elf/lib/libc.a(lib_a-strlen.o)
                              /home/nathan/Documents/Misc/quartus-free/pkg/quartus-free/opt/altera/18.1/nios2eds/bin/gnu/H-x86_64-pc-linux-gnu/bin/../lib/gcc/nios2-elf/5.3.0/../../../../../H-x86_64-pc-linux-gnu/nios2-elf/lib/libc.a(lib_a-puts.o) (strlen)
/home/nathan/Documents/Misc/quartus-free/pkg/quartus-free/opt/altera/18.1/nios2eds/bin/gnu/H-x86_64-pc-linux-gnu/bin/../lib/gcc/nios2-elf/5.3.0/../../../../../H-x86_64-pc-linux-gnu/nios2-elf/lib/libc.a(lib_a-vfprintf.o)
                              /home/nathan/Documents/Misc/quartus-free/pkg/quartus-free/opt/altera/18.1/nios2eds/bin/gnu/H-x86_64-pc-linux-gnu/bin/../lib/gcc/nios2-elf/5.3.0/../../../../../H-x86_64-pc-linux-gnu/nios2-elf/lib/libc.a(lib_a-printf.o) (___vfprintf_internal_r)
/home/nathan/Documents/Misc/quartus-free/pkg/quartus-free/opt/altera/18.1/nios2eds/bin/gnu/H-x86_64-pc-linux-gnu/bin/../lib/gcc/nios2-elf/5.3.0/../../../../../H-x86_64-pc-linux-gnu/nios2-elf/lib/libc.a(lib_a-wsetup.o)
                              /home/nathan/Documents/Misc/quartus-free/pkg/quartus-free/opt/altera/18.1/nios2eds/bin/gnu/H-x86_64-pc-linux-gnu/bin/../lib/gcc/nios2-elf/5.3.0/../../../../../H-x86_64-pc-linux-gnu/nios2-elf/lib/libc.a(lib_a-vfprintf.o) (__swsetup_r)
/home/nathan/Documents/Misc/quartus-free/pkg/quartus-free/opt/altera/18.1/nios2eds/bin/gnu/H-x86_64-pc-linux-gnu/bin/../lib/gcc/nios2-elf/5.3.0/../../../../../H-x86_64-pc-linux-gnu/nios2-elf/lib/libc.a(lib_a-dtoa.o)
                              /home/nathan/Documents/Misc/quartus-free/pkg/quartus-free/opt/altera/18.1/nios2eds/bin/gnu/H-x86_64-pc-linux-gnu/bin/../lib/gcc/nios2-elf/5.3.0/../../../../../H-x86_64-pc-linux-gnu/nios2-elf/lib/libc.a(lib_a-vfprintf.o) (_dtoa_r)
/home/nathan/Documents/Misc/quartus-free/pkg/quartus-free/opt/altera/18.1/nios2eds/bin/gnu/H-x86_64-pc-linux-gnu/bin/../lib/gcc/nios2-elf/5.3.0/../../../../../H-x86_64-pc-linux-gnu/nios2-elf/lib/libc.a(lib_a-fflush.o)
                              /home/nathan/Documents/Misc/quartus-free/pkg/quartus-free/opt/altera/18.1/nios2eds/bin/gnu/H-x86_64-pc-linux-gnu/bin/../lib/gcc/nios2-elf/5.3.0/../../../../../H-x86_64-pc-linux-gnu/nios2-elf/lib/libc.a(lib_a-vfprintf.o) (_fflush_r)
/home/nathan/Documents/Misc/quartus-free/pkg/quartus-free/opt/altera/18.1/nios2eds/bin/gnu/H-x86_64-pc-linux-gnu/bin/../lib/gcc/nios2-elf/5.3.0/../../../../../H-x86_64-pc-linux-gnu/nios2-elf/lib/libc.a(lib_a-findfp.o)
                              /home/nathan/Documents/Misc/quartus-free/pkg/quartus-free/opt/altera/18.1/nios2eds/bin/gnu/H-x86_64-pc-linux-gnu/bin/../lib/gcc/nios2-elf/5.3.0/../../../../../H-x86_64-pc-linux-gnu/nios2-elf/lib/libc.a(lib_a-puts.o) (__sinit)
/home/nathan/Documents/Misc/quartus-free/pkg/quartus-free/opt/altera/18.1/nios2eds/bin/gnu/H-x86_64-pc-linux-gnu/bin/../lib/gcc/nios2-elf/5.3.0/../../../../../H-x86_64-pc-linux-gnu/nios2-elf/lib/libc.a(lib_a-freer.o)
                              /home/nathan/Documents/Misc/quartus-free/pkg/quartus-free/opt/altera/18.1/nios2eds/bin/gnu/H-x86_64-pc-linux-gnu/bin/../lib/gcc/nios2-elf/5.3.0/../../../../../H-x86_64-pc-linux-gnu/nios2-elf/lib/libc.a(lib_a-malloc.o) (_free_r)
/home/nathan/Documents/Misc/quartus-free/pkg/quartus-free/opt/altera/18.1/nios2eds/bin/gnu/H-x86_64-pc-linux-gnu/bin/../lib/gcc/nios2-elf/5.3.0/../../../../../H-x86_64-pc-linux-gnu/nios2-elf/lib/libc.a(lib_a-fvwrite.o)
                              /home/nathan/Documents/Misc/quartus-free/pkg/quartus-free/opt/altera/18.1/nios2eds/bin/gnu/H-x86_64-pc-linux-gnu/bin/../lib/gcc/nios2-elf/5.3.0/../../../../../H-x86_64-pc-linux-gnu/nios2-elf/lib/libc.a(lib_a-puts.o) (__sfvwrite_r)
/home/nathan/Documents/Misc/quartus-free/pkg/quartus-free/opt/altera/18.1/nios2eds/bin/gnu/H-x86_64-pc-linux-gnu/bin/../lib/gcc/nios2-elf/5.3.0/../../../../../H-x86_64-pc-linux-gnu/nios2-elf/lib/libc.a(lib_a-fwalk.o)
                              /home/nathan/Documents/Misc/quartus-free/pkg/quartus-free/opt/altera/18.1/nios2eds/bin/gnu/H-x86_64-pc-linux-gnu/bin/../lib/gcc/nios2-elf/5.3.0/../../../../../H-x86_64-pc-linux-gnu/nios2-elf/lib/libc.a(lib_a-findfp.o) (_fwalk)
/home/nathan/Documents/Misc/quartus-free/pkg/quartus-free/opt/altera/18.1/nios2eds/bin/gnu/H-x86_64-pc-linux-gnu/bin/../lib/gcc/nios2-elf/5.3.0/../../../../../H-x86_64-pc-linux-gnu/nios2-elf/lib/libc.a(lib_a-impure.o)
                              /home/nathan/Documents/Misc/quartus-free/pkg/quartus-free/opt/altera/18.1/nios2eds/bin/gnu/H-x86_64-pc-linux-gnu/bin/../lib/gcc/nios2-elf/5.3.0/../../../../../H-x86_64-pc-linux-gnu/nios2-elf/lib/libc.a(lib_a-fflush.o) (_global_impure_ptr)
/home/nathan/Documents/Misc/quartus-free/pkg/quartus-free/opt/altera/18.1/nios2eds/bin/gnu/H-x86_64-pc-linux-gnu/bin/../lib/gcc/nios2-elf/5.3.0/../../../../../H-x86_64-pc-linux-gnu/nios2-elf/lib/libc.a(lib_a-int_errno.o)
                              /home/nathan/Documents/Misc/quartus-free/pkg/quartus-free/opt/altera/18.1/nios2eds/bin/gnu/H-x86_64-pc-linux-gnu/bin/../lib/gcc/nios2-elf/5.3.0/../../../../../H-x86_64-pc-linux-gnu/nios2-elf/lib/libc.a(lib_a-sbrkr.o) (errno)
/home/nathan/Documents/Misc/quartus-free/pkg/quartus-free/opt/altera/18.1/nios2eds/bin/gnu/H-x86_64-pc-linux-gnu/bin/../lib/gcc/nios2-elf/5.3.0/../../../../../H-x86_64-pc-linux-gnu/nios2-elf/lib/libc.a(lib_a-locale.o)
                              /home/nathan/Documents/Misc/quartus-free/pkg/quartus-free/opt/altera/18.1/nios2eds/bin/gnu/H-x86_64-pc-linux-gnu/bin/../lib/gcc/nios2-elf/5.3.0/../../../../../H-x86_64-pc-linux-gnu/nios2-elf/lib/libc.a(lib_a-vfprintf.o) (_localeconv_r)
/home/nathan/Documents/Misc/quartus-free/pkg/quartus-free/opt/altera/18.1/nios2eds/bin/gnu/H-x86_64-pc-linux-gnu/bin/../lib/gcc/nios2-elf/5.3.0/../../../../../H-x86_64-pc-linux-gnu/nios2-elf/lib/libc.a(lib_a-makebuf.o)
                              /home/nathan/Documents/Misc/quartus-free/pkg/quartus-free/opt/altera/18.1/nios2eds/bin/gnu/H-x86_64-pc-linux-gnu/bin/../lib/gcc/nios2-elf/5.3.0/../../../../../H-x86_64-pc-linux-gnu/nios2-elf/lib/libc.a(lib_a-wsetup.o) (__smakebuf_r)
/home/nathan/Documents/Misc/quartus-free/pkg/quartus-free/opt/altera/18.1/nios2eds/bin/gnu/H-x86_64-pc-linux-gnu/bin/../lib/gcc/nios2-elf/5.3.0/../../../../../H-x86_64-pc-linux-gnu/nios2-elf/lib/libc.a(lib_a-memchr.o)
                              /home/nathan/Documents/Misc/quartus-free/pkg/quartus-free/opt/altera/18.1/nios2eds/bin/gnu/H-x86_64-pc-linux-gnu/bin/../lib/gcc/nios2-elf/5.3.0/../../../../../H-x86_64-pc-linux-gnu/nios2-elf/lib/libc.a(lib_a-vfprintf.o) (memchr)
/home/nathan/Documents/Misc/quartus-free/pkg/quartus-free/opt/altera/18.1/nios2eds/bin/gnu/H-x86_64-pc-linux-gnu/bin/../lib/gcc/nios2-elf/5.3.0/../../../../../H-x86_64-pc-linux-gnu/nios2-elf/lib/libc.a(lib_a-memcpy.o)
                              /home/nathan/Documents/Misc/quartus-free/pkg/quartus-free/opt/altera/18.1/nios2eds/bin/gnu/H-x86_64-pc-linux-gnu/bin/../lib/gcc/nios2-elf/5.3.0/../../../../../H-x86_64-pc-linux-gnu/nios2-elf/lib/libc.a(lib_a-dtoa.o) (memcpy)
/home/nathan/Documents/Misc/quartus-free/pkg/quartus-free/opt/altera/18.1/nios2eds/bin/gnu/H-x86_64-pc-linux-gnu/bin/../lib/gcc/nios2-elf/5.3.0/../../../../../H-x86_64-pc-linux-gnu/nios2-elf/lib/libc.a(lib_a-memmove.o)
                              /home/nathan/Documents/Misc/quartus-free/pkg/quartus-free/opt/altera/18.1/nios2eds/bin/gnu/H-x86_64-pc-linux-gnu/bin/../lib/gcc/nios2-elf/5.3.0/../../../../../H-x86_64-pc-linux-gnu/nios2-elf/lib/libc.a(lib_a-fvwrite.o) (memmove)
/home/nathan/Documents/Misc/quartus-free/pkg/quartus-free/opt/altera/18.1/nios2eds/bin/gnu/H-x86_64-pc-linux-gnu/bin/../lib/gcc/nios2-elf/5.3.0/../../../../../H-x86_64-pc-linux-gnu/nios2-elf/lib/libc.a(lib_a-memset.o)
                              /home/nathan/Documents/Misc/quartus-free/pkg/quartus-free/opt/altera/18.1/nios2eds/bin/gnu/H-x86_64-pc-linux-gnu/bin/../lib/gcc/nios2-elf/5.3.0/../../../../../H-x86_64-pc-linux-gnu/nios2-elf/lib/libc.a(lib_a-findfp.o) (memset)
/home/nathan/Documents/Misc/quartus-free/pkg/quartus-free/opt/altera/18.1/nios2eds/bin/gnu/H-x86_64-pc-linux-gnu/bin/../lib/gcc/nios2-elf/5.3.0/../../../../../H-x86_64-pc-linux-gnu/nios2-elf/lib/libc.a(lib_a-mprec.o)
                              /home/nathan/Documents/Misc/quartus-free/pkg/quartus-free/opt/altera/18.1/nios2eds/bin/gnu/H-x86_64-pc-linux-gnu/bin/../lib/gcc/nios2-elf/5.3.0/../../../../../H-x86_64-pc-linux-gnu/nios2-elf/lib/libc.a(lib_a-dtoa.o) (_Balloc)
/home/nathan/Documents/Misc/quartus-free/pkg/quartus-free/opt/altera/18.1/nios2eds/bin/gnu/H-x86_64-pc-linux-gnu/bin/../lib/gcc/nios2-elf/5.3.0/../../../../../H-x86_64-pc-linux-gnu/nios2-elf/lib/libc.a(lib_a-reallocr.o)
                              /home/nathan/Documents/Misc/quartus-free/pkg/quartus-free/opt/altera/18.1/nios2eds/bin/gnu/H-x86_64-pc-linux-gnu/bin/../lib/gcc/nios2-elf/5.3.0/../../../../../H-x86_64-pc-linux-gnu/nios2-elf/lib/libc.a(lib_a-fvwrite.o) (_realloc_r)
/home/nathan/Documents/Misc/quartus-free/pkg/quartus-free/opt/altera/18.1/nios2eds/bin/gnu/H-x86_64-pc-linux-gnu/bin/../lib/gcc/nios2-elf/5.3.0/../../../../../H-x86_64-pc-linux-gnu/nios2-elf/lib/libc.a(lib_a-s_fpclassify.o)
                              /home/nathan/Documents/Misc/quartus-free/pkg/quartus-free/opt/altera/18.1/nios2eds/bin/gnu/H-x86_64-pc-linux-gnu/bin/../lib/gcc/nios2-elf/5.3.0/../../../../../H-x86_64-pc-linux-gnu/nios2-elf/lib/libc.a(lib_a-vfprintf.o) (__fpclassifyd)
/home/nathan/Documents/Misc/quartus-free/pkg/quartus-free/opt/altera/18.1/nios2eds/bin/gnu/H-x86_64-pc-linux-gnu/bin/../lib/gcc/nios2-elf/5.3.0/../../../../../H-x86_64-pc-linux-gnu/nios2-elf/lib/libc.a(lib_a-stdio.o)
                              /home/nathan/Documents/Misc/quartus-free/pkg/quartus-free/opt/altera/18.1/nios2eds/bin/gnu/H-x86_64-pc-linux-gnu/bin/../lib/gcc/nios2-elf/5.3.0/../../../../../H-x86_64-pc-linux-gnu/nios2-elf/lib/libc.a(lib_a-findfp.o) (__sread)
/home/nathan/Documents/Misc/quartus-free/pkg/quartus-free/opt/altera/18.1/nios2eds/bin/gnu/H-x86_64-pc-linux-gnu/bin/../lib/gcc/nios2-elf/5.3.0/../../../../../H-x86_64-pc-linux-gnu/nios2-elf/lib/libc.a(lib_a-strcmp.o)
                              /home/nathan/Documents/Misc/quartus-free/pkg/quartus-free/opt/altera/18.1/nios2eds/bin/gnu/H-x86_64-pc-linux-gnu/bin/../lib/gcc/nios2-elf/5.3.0/../../../../../H-x86_64-pc-linux-gnu/nios2-elf/lib/libc.a(lib_a-locale.o) (strcmp)
/home/nathan/Documents/Misc/quartus-free/pkg/quartus-free/opt/altera/18.1/nios2eds/bin/gnu/H-x86_64-pc-linux-gnu/bin/../lib/gcc/nios2-elf/5.3.0/../../../../../H-x86_64-pc-linux-gnu/nios2-elf/lib/libc.a(lib_a-vfiprintf.o)
                              /home/nathan/Documents/Misc/quartus-free/pkg/quartus-free/opt/altera/18.1/nios2eds/bin/gnu/H-x86_64-pc-linux-gnu/bin/../lib/gcc/nios2-elf/5.3.0/../../../../../H-x86_64-pc-linux-gnu/nios2-elf/lib/libc.a(lib_a-vfprintf.o) (__sprint_r)
/home/nathan/Documents/Misc/quartus-free/pkg/quartus-free/opt/altera/18.1/nios2eds/bin/gnu/H-x86_64-pc-linux-gnu/bin/../lib/gcc/nios2-elf/5.3.0/../../../../../H-x86_64-pc-linux-gnu/nios2-elf/lib/libc.a(lib_a-writer.o)
                              /home/nathan/Documents/Misc/quartus-free/pkg/quartus-free/opt/altera/18.1/nios2eds/bin/gnu/H-x86_64-pc-linux-gnu/bin/../lib/gcc/nios2-elf/5.3.0/../../../../../H-x86_64-pc-linux-gnu/nios2-elf/lib/libc.a(lib_a-stdio.o) (_write_r)
/home/nathan/Documents/Misc/quartus-free/pkg/quartus-free/opt/altera/18.1/nios2eds/bin/gnu/H-x86_64-pc-linux-gnu/bin/../lib/gcc/nios2-elf/5.3.0/../../../../../H-x86_64-pc-linux-gnu/nios2-elf/lib/libc.a(closer.o)
                              /home/nathan/Documents/Misc/quartus-free/pkg/quartus-free/opt/altera/18.1/nios2eds/bin/gnu/H-x86_64-pc-linux-gnu/bin/../lib/gcc/nios2-elf/5.3.0/../../../../../H-x86_64-pc-linux-gnu/nios2-elf/lib/libc.a(lib_a-stdio.o) (_close_r)
/home/nathan/Documents/Misc/quartus-free/pkg/quartus-free/opt/altera/18.1/nios2eds/bin/gnu/H-x86_64-pc-linux-gnu/bin/../lib/gcc/nios2-elf/5.3.0/../../../../../H-x86_64-pc-linux-gnu/nios2-elf/lib/libc.a(lib_a-callocr.o)
                              /home/nathan/Documents/Misc/quartus-free/pkg/quartus-free/opt/altera/18.1/nios2eds/bin/gnu/H-x86_64-pc-linux-gnu/bin/../lib/gcc/nios2-elf/5.3.0/../../../../../H-x86_64-pc-linux-gnu/nios2-elf/lib/libc.a(lib_a-mprec.o) (_calloc_r)
/home/nathan/Documents/Misc/quartus-free/pkg/quartus-free/opt/altera/18.1/nios2eds/bin/gnu/H-x86_64-pc-linux-gnu/bin/../lib/gcc/nios2-elf/5.3.0/../../../../../H-x86_64-pc-linux-gnu/nios2-elf/lib/libc.a(lib_a-fclose.o)
                              /home/nathan/Documents/Misc/quartus-free/pkg/quartus-free/opt/altera/18.1/nios2eds/bin/gnu/H-x86_64-pc-linux-gnu/bin/../lib/gcc/nios2-elf/5.3.0/../../../../../H-x86_64-pc-linux-gnu/nios2-elf/lib/libc.a(lib_a-findfp.o) (_fclose_r)
/home/nathan/Documents/Misc/quartus-free/pkg/quartus-free/opt/altera/18.1/nios2eds/bin/gnu/H-x86_64-pc-linux-gnu/bin/../lib/gcc/nios2-elf/5.3.0/../../../../../H-x86_64-pc-linux-gnu/nios2-elf/lib/libc.a(lib_a-fputwc.o)
                              /home/nathan/Documents/Misc/quartus-free/pkg/quartus-free/opt/altera/18.1/nios2eds/bin/gnu/H-x86_64-pc-linux-gnu/bin/../lib/gcc/nios2-elf/5.3.0/../../../../../H-x86_64-pc-linux-gnu/nios2-elf/lib/libc.a(lib_a-vfiprintf.o) (_fputwc_r)
/home/nathan/Documents/Misc/quartus-free/pkg/quartus-free/opt/altera/18.1/nios2eds/bin/gnu/H-x86_64-pc-linux-gnu/bin/../lib/gcc/nios2-elf/5.3.0/../../../../../H-x86_64-pc-linux-gnu/nios2-elf/lib/libc.a(lib_a-fstatr.o)
                              /home/nathan/Documents/Misc/quartus-free/pkg/quartus-free/opt/altera/18.1/nios2eds/bin/gnu/H-x86_64-pc-linux-gnu/bin/../lib/gcc/nios2-elf/5.3.0/../../../../../H-x86_64-pc-linux-gnu/nios2-elf/lib/libc.a(lib_a-makebuf.o) (_fstat_r)
/home/nathan/Documents/Misc/quartus-free/pkg/quartus-free/opt/altera/18.1/nios2eds/bin/gnu/H-x86_64-pc-linux-gnu/bin/../lib/gcc/nios2-elf/5.3.0/../../../../../H-x86_64-pc-linux-gnu/nios2-elf/lib/libc.a(lib_a-isattyr.o)
                              /home/nathan/Documents/Misc/quartus-free/pkg/quartus-free/opt/altera/18.1/nios2eds/bin/gnu/H-x86_64-pc-linux-gnu/bin/../lib/gcc/nios2-elf/5.3.0/../../../../../H-x86_64-pc-linux-gnu/nios2-elf/lib/libc.a(lib_a-makebuf.o) (_isatty_r)
/home/nathan/Documents/Misc/quartus-free/pkg/quartus-free/opt/altera/18.1/nios2eds/bin/gnu/H-x86_64-pc-linux-gnu/bin/../lib/gcc/nios2-elf/5.3.0/../../../../../H-x86_64-pc-linux-gnu/nios2-elf/lib/libc.a(lib_a-lseekr.o)
                              /home/nathan/Documents/Misc/quartus-free/pkg/quartus-free/opt/altera/18.1/nios2eds/bin/gnu/H-x86_64-pc-linux-gnu/bin/../lib/gcc/nios2-elf/5.3.0/../../../../../H-x86_64-pc-linux-gnu/nios2-elf/lib/libc.a(lib_a-stdio.o) (_lseek_r)
/home/nathan/Documents/Misc/quartus-free/pkg/quartus-free/opt/altera/18.1/nios2eds/bin/gnu/H-x86_64-pc-linux-gnu/bin/../lib/gcc/nios2-elf/5.3.0/../../../../../H-x86_64-pc-linux-gnu/nios2-elf/lib/libc.a(lib_a-readr.o)
                              /home/nathan/Documents/Misc/quartus-free/pkg/quartus-free/opt/altera/18.1/nios2eds/bin/gnu/H-x86_64-pc-linux-gnu/bin/../lib/gcc/nios2-elf/5.3.0/../../../../../H-x86_64-pc-linux-gnu/nios2-elf/lib/libc.a(lib_a-stdio.o) (_read_r)
/home/nathan/Documents/Misc/quartus-free/pkg/quartus-free/opt/altera/18.1/nios2eds/bin/gnu/H-x86_64-pc-linux-gnu/bin/../lib/gcc/nios2-elf/5.3.0/../../../../../H-x86_64-pc-linux-gnu/nios2-elf/lib/libc.a(lib_a-wbuf.o)
                              /home/nathan/Documents/Misc/quartus-free/pkg/quartus-free/opt/altera/18.1/nios2eds/bin/gnu/H-x86_64-pc-linux-gnu/bin/../lib/gcc/nios2-elf/5.3.0/../../../../../H-x86_64-pc-linux-gnu/nios2-elf/lib/libc.a(lib_a-fputwc.o) (__swbuf_r)
/home/nathan/Documents/Misc/quartus-free/pkg/quartus-free/opt/altera/18.1/nios2eds/bin/gnu/H-x86_64-pc-linux-gnu/bin/../lib/gcc/nios2-elf/5.3.0/../../../../../H-x86_64-pc-linux-gnu/nios2-elf/lib/libc.a(lib_a-wcrtomb.o)
                              /home/nathan/Documents/Misc/quartus-free/pkg/quartus-free/opt/altera/18.1/nios2eds/bin/gnu/H-x86_64-pc-linux-gnu/bin/../lib/gcc/nios2-elf/5.3.0/../../../../../H-x86_64-pc-linux-gnu/nios2-elf/lib/libc.a(lib_a-fputwc.o) (_wcrtomb_r)
/home/nathan/Documents/Misc/quartus-free/pkg/quartus-free/opt/altera/18.1/nios2eds/bin/gnu/H-x86_64-pc-linux-gnu/bin/../lib/gcc/nios2-elf/5.3.0/../../../../../H-x86_64-pc-linux-gnu/nios2-elf/lib/libc.a(lib_a-wctomb_r.o)
                              /home/nathan/Documents/Misc/quartus-free/pkg/quartus-free/opt/altera/18.1/nios2eds/bin/gnu/H-x86_64-pc-linux-gnu/bin/../lib/gcc/nios2-elf/5.3.0/../../../../../H-x86_64-pc-linux-gnu/nios2-elf/lib/libc.a(lib_a-wcrtomb.o) (__wctomb)
/home/nathan/Documents/Misc/quartus-free/pkg/quartus-free/opt/altera/18.1/nios2eds/bin/gnu/H-x86_64-pc-linux-gnu/bin/../lib/gcc/nios2-elf/5.3.0/libgcc.a(_udivdi3.o)
                              /home/nathan/Documents/Misc/quartus-free/pkg/quartus-free/opt/altera/18.1/nios2eds/bin/gnu/H-x86_64-pc-linux-gnu/bin/../lib/gcc/nios2-elf/5.3.0/../../../../../H-x86_64-pc-linux-gnu/nios2-elf/lib/libc.a(lib_a-vfprintf.o) (__udivdi3)
/home/nathan/Documents/Misc/quartus-free/pkg/quartus-free/opt/altera/18.1/nios2eds/bin/gnu/H-x86_64-pc-linux-gnu/bin/../lib/gcc/nios2-elf/5.3.0/libgcc.a(_umoddi3.o)
                              /home/nathan/Documents/Misc/quartus-free/pkg/quartus-free/opt/altera/18.1/nios2eds/bin/gnu/H-x86_64-pc-linux-gnu/bin/../lib/gcc/nios2-elf/5.3.0/../../../../../H-x86_64-pc-linux-gnu/nios2-elf/lib/libc.a(lib_a-vfprintf.o) (__umoddi3)
/home/nathan/Documents/Misc/quartus-free/pkg/quartus-free/opt/altera/18.1/nios2eds/bin/gnu/H-x86_64-pc-linux-gnu/bin/../lib/gcc/nios2-elf/5.3.0/libgcc.a(adddf3.o)
                              /home/nathan/Documents/Misc/quartus-free/pkg/quartus-free/opt/altera/18.1/nios2eds/bin/gnu/H-x86_64-pc-linux-gnu/bin/../lib/gcc/nios2-elf/5.3.0/../../../../../H-x86_64-pc-linux-gnu/nios2-elf/lib/libc.a(lib_a-dtoa.o) (__adddf3)
/home/nathan/Documents/Misc/quartus-free/pkg/quartus-free/opt/altera/18.1/nios2eds/bin/gnu/H-x86_64-pc-linux-gnu/bin/../lib/gcc/nios2-elf/5.3.0/libgcc.a(divdf3.o)
                              /home/nathan/Documents/Misc/quartus-free/pkg/quartus-free/opt/altera/18.1/nios2eds/bin/gnu/H-x86_64-pc-linux-gnu/bin/../lib/gcc/nios2-elf/5.3.0/../../../../../H-x86_64-pc-linux-gnu/nios2-elf/lib/libc.a(lib_a-dtoa.o) (__divdf3)
/home/nathan/Documents/Misc/quartus-free/pkg/quartus-free/opt/altera/18.1/nios2eds/bin/gnu/H-x86_64-pc-linux-gnu/bin/../lib/gcc/nios2-elf/5.3.0/libgcc.a(eqdf2.o)
                              /home/nathan/Documents/Misc/quartus-free/pkg/quartus-free/opt/altera/18.1/nios2eds/bin/gnu/H-x86_64-pc-linux-gnu/bin/../lib/gcc/nios2-elf/5.3.0/../../../../../H-x86_64-pc-linux-gnu/nios2-elf/lib/libc.a(lib_a-vfprintf.o) (__eqdf2)
/home/nathan/Documents/Misc/quartus-free/pkg/quartus-free/opt/altera/18.1/nios2eds/bin/gnu/H-x86_64-pc-linux-gnu/bin/../lib/gcc/nios2-elf/5.3.0/libgcc.a(gedf2.o)
                              /home/nathan/Documents/Misc/quartus-free/pkg/quartus-free/opt/altera/18.1/nios2eds/bin/gnu/H-x86_64-pc-linux-gnu/bin/../lib/gcc/nios2-elf/5.3.0/../../../../../H-x86_64-pc-linux-gnu/nios2-elf/lib/libc.a(lib_a-dtoa.o) (__gedf2)
/home/nathan/Documents/Misc/quartus-free/pkg/quartus-free/opt/altera/18.1/nios2eds/bin/gnu/H-x86_64-pc-linux-gnu/bin/../lib/gcc/nios2-elf/5.3.0/libgcc.a(ledf2.o)
                              /home/nathan/Documents/Misc/quartus-free/pkg/quartus-free/opt/altera/18.1/nios2eds/bin/gnu/H-x86_64-pc-linux-gnu/bin/../lib/gcc/nios2-elf/5.3.0/../../../../../H-x86_64-pc-linux-gnu/nios2-elf/lib/libc.a(lib_a-vfprintf.o) (__ltdf2)
/home/nathan/Documents/Misc/quartus-free/pkg/quartus-free/opt/altera/18.1/nios2eds/bin/gnu/H-x86_64-pc-linux-gnu/bin/../lib/gcc/nios2-elf/5.3.0/libgcc.a(muldf3.o)
                              /home/nathan/Documents/Misc/quartus-free/pkg/quartus-free/opt/altera/18.1/nios2eds/bin/gnu/H-x86_64-pc-linux-gnu/bin/../lib/gcc/nios2-elf/5.3.0/../../../../../H-x86_64-pc-linux-gnu/nios2-elf/lib/libc.a(lib_a-dtoa.o) (__muldf3)
/home/nathan/Documents/Misc/quartus-free/pkg/quartus-free/opt/altera/18.1/nios2eds/bin/gnu/H-x86_64-pc-linux-gnu/bin/../lib/gcc/nios2-elf/5.3.0/libgcc.a(subdf3.o)
                              /home/nathan/Documents/Misc/quartus-free/pkg/quartus-free/opt/altera/18.1/nios2eds/bin/gnu/H-x86_64-pc-linux-gnu/bin/../lib/gcc/nios2-elf/5.3.0/../../../../../H-x86_64-pc-linux-gnu/nios2-elf/lib/libc.a(lib_a-dtoa.o) (__subdf3)
/home/nathan/Documents/Misc/quartus-free/pkg/quartus-free/opt/altera/18.1/nios2eds/bin/gnu/H-x86_64-pc-linux-gnu/bin/../lib/gcc/nios2-elf/5.3.0/libgcc.a(fixdfsi.o)
                              /home/nathan/Documents/Misc/quartus-free/pkg/quartus-free/opt/altera/18.1/nios2eds/bin/gnu/H-x86_64-pc-linux-gnu/bin/../lib/gcc/nios2-elf/5.3.0/../../../../../H-x86_64-pc-linux-gnu/nios2-elf/lib/libc.a(lib_a-dtoa.o) (__fixdfsi)
/home/nathan/Documents/Misc/quartus-free/pkg/quartus-free/opt/altera/18.1/nios2eds/bin/gnu/H-x86_64-pc-linux-gnu/bin/../lib/gcc/nios2-elf/5.3.0/libgcc.a(floatsidf.o)
                              /home/nathan/Documents/Misc/quartus-free/pkg/quartus-free/opt/altera/18.1/nios2eds/bin/gnu/H-x86_64-pc-linux-gnu/bin/../lib/gcc/nios2-elf/5.3.0/../../../../../H-x86_64-pc-linux-gnu/nios2-elf/lib/libc.a(lib_a-dtoa.o) (__floatsidf)
/home/nathan/Documents/Misc/quartus-free/pkg/quartus-free/opt/altera/18.1/nios2eds/bin/gnu/H-x86_64-pc-linux-gnu/bin/../lib/gcc/nios2-elf/5.3.0/libgcc.a(floatunsidf.o)
                              /home/nathan/Documents/Misc/quartus-free/pkg/quartus-free/opt/altera/18.1/nios2eds/bin/gnu/H-x86_64-pc-linux-gnu/bin/../lib/gcc/nios2-elf/5.3.0/../../../../../H-x86_64-pc-linux-gnu/nios2-elf/lib/libc.a(lib_a-dtoa.o) (__floatunsidf)
/home/nathan/Documents/Misc/quartus-free/pkg/quartus-free/opt/altera/18.1/nios2eds/bin/gnu/H-x86_64-pc-linux-gnu/bin/../lib/gcc/nios2-elf/5.3.0/libgcc.a(_clz.o)
                              /home/nathan/Documents/Misc/quartus-free/pkg/quartus-free/opt/altera/18.1/nios2eds/bin/gnu/H-x86_64-pc-linux-gnu/bin/../lib/gcc/nios2-elf/5.3.0/libgcc.a(_udivdi3.o) (__clz_tab)
/home/nathan/Documents/Misc/quartus-free/pkg/quartus-free/opt/altera/18.1/nios2eds/bin/gnu/H-x86_64-pc-linux-gnu/bin/../lib/gcc/nios2-elf/5.3.0/libgcc.a(_clzsi2.o)
                              /home/nathan/Documents/Misc/quartus-free/pkg/quartus-free/opt/altera/18.1/nios2eds/bin/gnu/H-x86_64-pc-linux-gnu/bin/../lib/gcc/nios2-elf/5.3.0/libgcc.a(adddf3.o) (__clzsi2)
/home/nathan/Documents/Cours/EPFL_RTES_CS476/Code/mini_project_v2/sw/mini_project_v3_bsp//libucosii_bsp.a(alt_close.o)
                              /home/nathan/Documents/Misc/quartus-free/pkg/quartus-free/opt/altera/18.1/nios2eds/bin/gnu/H-x86_64-pc-linux-gnu/bin/../lib/gcc/nios2-elf/5.3.0/../../../../../H-x86_64-pc-linux-gnu/nios2-elf/lib/libc.a(closer.o) (close)
/home/nathan/Documents/Cours/EPFL_RTES_CS476/Code/mini_project_v2/sw/mini_project_v3_bsp//libucosii_bsp.a(alt_dev.o)
                              /home/nathan/Documents/Cours/EPFL_RTES_CS476/Code/mini_project_v2/sw/mini_project_v3_bsp//libucosii_bsp.a(alt_close.o) (alt_fd_list)
/home/nathan/Documents/Cours/EPFL_RTES_CS476/Code/mini_project_v2/sw/mini_project_v3_bsp//libucosii_bsp.a(alt_errno.o)
                              /home/nathan/Documents/Cours/EPFL_RTES_CS476/Code/mini_project_v2/sw/mini_project_v3_bsp//libucosii_bsp.a(alt_close.o) (alt_errno)
/home/nathan/Documents/Cours/EPFL_RTES_CS476/Code/mini_project_v2/sw/mini_project_v3_bsp//libucosii_bsp.a(alt_fstat.o)
                              /home/nathan/Documents/Misc/quartus-free/pkg/quartus-free/opt/altera/18.1/nios2eds/bin/gnu/H-x86_64-pc-linux-gnu/bin/../lib/gcc/nios2-elf/5.3.0/../../../../../H-x86_64-pc-linux-gnu/nios2-elf/lib/libc.a(lib_a-fstatr.o) (fstat)
/home/nathan/Documents/Cours/EPFL_RTES_CS476/Code/mini_project_v2/sw/mini_project_v3_bsp//libucosii_bsp.a(alt_isatty.o)
                              /home/nathan/Documents/Misc/quartus-free/pkg/quartus-free/opt/altera/18.1/nios2eds/bin/gnu/H-x86_64-pc-linux-gnu/bin/../lib/gcc/nios2-elf/5.3.0/../../../../../H-x86_64-pc-linux-gnu/nios2-elf/lib/libc.a(lib_a-isattyr.o) (isatty)
/home/nathan/Documents/Cours/EPFL_RTES_CS476/Code/mini_project_v2/sw/mini_project_v3_bsp//libucosii_bsp.a(alt_load.o)
                              /home/nathan/Documents/Cours/EPFL_RTES_CS476/Code/mini_project_v2/sw/mini_project_v3_bsp//obj/HAL/src/crt0.o (alt_load)
/home/nathan/Documents/Cours/EPFL_RTES_CS476/Code/mini_project_v2/sw/mini_project_v3_bsp//libucosii_bsp.a(alt_lseek.o)
                              /home/nathan/Documents/Misc/quartus-free/pkg/quartus-free/opt/altera/18.1/nios2eds/bin/gnu/H-x86_64-pc-linux-gnu/bin/../lib/gcc/nios2-elf/5.3.0/../../../../../H-x86_64-pc-linux-gnu/nios2-elf/lib/libc.a(lib_a-lseekr.o) (lseek)
/home/nathan/Documents/Cours/EPFL_RTES_CS476/Code/mini_project_v2/sw/mini_project_v3_bsp//libucosii_bsp.a(alt_main.o)
                              /home/nathan/Documents/Cours/EPFL_RTES_CS476/Code/mini_project_v2/sw/mini_project_v3_bsp//obj/HAL/src/crt0.o (alt_main)
/home/nathan/Documents/Cours/EPFL_RTES_CS476/Code/mini_project_v2/sw/mini_project_v3_bsp//libucosii_bsp.a(alt_read.o)
                              /home/nathan/Documents/Misc/quartus-free/pkg/quartus-free/opt/altera/18.1/nios2eds/bin/gnu/H-x86_64-pc-linux-gnu/bin/../lib/gcc/nios2-elf/5.3.0/../../../../../H-x86_64-pc-linux-gnu/nios2-elf/lib/libc.a(lib_a-readr.o) (read)
/home/nathan/Documents/Cours/EPFL_RTES_CS476/Code/mini_project_v2/sw/mini_project_v3_bsp//libucosii_bsp.a(alt_release_fd.o)
                              /home/nathan/Documents/Cours/EPFL_RTES_CS476/Code/mini_project_v2/sw/mini_project_v3_bsp//libucosii_bsp.a(alt_close.o) (alt_release_fd)
/home/nathan/Documents/Cours/EPFL_RTES_CS476/Code/mini_project_v2/sw/mini_project_v3_bsp//libucosii_bsp.a(alt_sbrk.o)
                              /home/nathan/Documents/Misc/quartus-free/pkg/quartus-free/opt/altera/18.1/nios2eds/bin/gnu/H-x86_64-pc-linux-gnu/bin/../lib/gcc/nios2-elf/5.3.0/../../../../../H-x86_64-pc-linux-gnu/nios2-elf/lib/libc.a(lib_a-sbrkr.o) (sbrk)
/home/nathan/Documents/Cours/EPFL_RTES_CS476/Code/mini_project_v2/sw/mini_project_v3_bsp//libucosii_bsp.a(alt_write.o)
                              /home/nathan/Documents/Misc/quartus-free/pkg/quartus-free/opt/altera/18.1/nios2eds/bin/gnu/H-x86_64-pc-linux-gnu/bin/../lib/gcc/nios2-elf/5.3.0/../../../../../H-x86_64-pc-linux-gnu/nios2-elf/lib/libc.a(lib_a-writer.o) (write)
/home/nathan/Documents/Cours/EPFL_RTES_CS476/Code/mini_project_v2/sw/mini_project_v3_bsp//libucosii_bsp.a(alt_env_lock.o)
                              /home/nathan/Documents/Cours/EPFL_RTES_CS476/Code/mini_project_v2/sw/mini_project_v3_bsp//libucosii_bsp.a(alt_main.o) (alt_envsem)
/home/nathan/Documents/Cours/EPFL_RTES_CS476/Code/mini_project_v2/sw/mini_project_v3_bsp//libucosii_bsp.a(alt_malloc_lock.o)
                              /home/nathan/Documents/Cours/EPFL_RTES_CS476/Code/mini_project_v2/sw/mini_project_v3_bsp//libucosii_bsp.a(alt_main.o) (alt_heapsem)
/home/nathan/Documents/Cours/EPFL_RTES_CS476/Code/mini_project_v2/sw/mini_project_v3_bsp//libucosii_bsp.a(os_core.o)
                              /home/nathan/Documents/Cours/EPFL_RTES_CS476/Code/mini_project_v2/sw/mini_project_v3_bsp//libucosii_bsp.a(alt_malloc_lock.o) (OSRunning)
/home/nathan/Documents/Cours/EPFL_RTES_CS476/Code/mini_project_v2/sw/mini_project_v3_bsp//libucosii_bsp.a(os_dbg.o)
                              /home/nathan/Documents/Cours/EPFL_RTES_CS476/Code/mini_project_v2/sw/mini_project_v3_bsp//libucosii_bsp.a(os_core.o) (OSDebugInit)
/home/nathan/Documents/Cours/EPFL_RTES_CS476/Code/mini_project_v2/sw/mini_project_v3_bsp//libucosii_bsp.a(os_flag.o)
                              /home/nathan/Documents/Cours/EPFL_RTES_CS476/Code/mini_project_v2/sw/mini_project_v3_bsp//libucosii_bsp.a(os_core.o) (OS_FlagInit)
/home/nathan/Documents/Cours/EPFL_RTES_CS476/Code/mini_project_v2/sw/mini_project_v3_bsp//libucosii_bsp.a(os_mem.o)
                              /home/nathan/Documents/Cours/EPFL_RTES_CS476/Code/mini_project_v2/sw/mini_project_v3_bsp//libucosii_bsp.a(os_core.o) (OS_MemInit)
/home/nathan/Documents/Cours/EPFL_RTES_CS476/Code/mini_project_v2/sw/mini_project_v3_bsp//libucosii_bsp.a(os_q.o)
                              obj/default/mini_project_with_fake_camera.o (OSQCreate)
/home/nathan/Documents/Cours/EPFL_RTES_CS476/Code/mini_project_v2/sw/mini_project_v3_bsp//libucosii_bsp.a(os_sem.o)
                              /home/nathan/Documents/Cours/EPFL_RTES_CS476/Code/mini_project_v2/sw/mini_project_v3_bsp//libucosii_bsp.a(alt_main.o) (OSSemCreate)
/home/nathan/Documents/Cours/EPFL_RTES_CS476/Code/mini_project_v2/sw/mini_project_v3_bsp//libucosii_bsp.a(os_task.o)
                              obj/default/mini_project_with_fake_camera.o (OSTaskCreateExt)
/home/nathan/Documents/Cours/EPFL_RTES_CS476/Code/mini_project_v2/sw/mini_project_v3_bsp//libucosii_bsp.a(os_time.o)
                              /home/nathan/Documents/Cours/EPFL_RTES_CS476/Code/mini_project_v2/sw/mini_project_v3_bsp//libucosii_bsp.a(os_core.o) (OSTimeDly)
/home/nathan/Documents/Cours/EPFL_RTES_CS476/Code/mini_project_v2/sw/mini_project_v3_bsp//libucosii_bsp.a(alt_sys_init.o)
                              /home/nathan/Documents/Cours/EPFL_RTES_CS476/Code/mini_project_v2/sw/mini_project_v3_bsp//libucosii_bsp.a(alt_main.o) (alt_irq_init)
/home/nathan/Documents/Cours/EPFL_RTES_CS476/Code/mini_project_v2/sw/mini_project_v3_bsp//libucosii_bsp.a(altera_avalon_jtag_uart_fd.o)
                              /home/nathan/Documents/Cours/EPFL_RTES_CS476/Code/mini_project_v2/sw/mini_project_v3_bsp//libucosii_bsp.a(alt_sys_init.o) (altera_avalon_jtag_uart_read_fd)
/home/nathan/Documents/Cours/EPFL_RTES_CS476/Code/mini_project_v2/sw/mini_project_v3_bsp//libucosii_bsp.a(altera_avalon_jtag_uart_init.o)
                              /home/nathan/Documents/Cours/EPFL_RTES_CS476/Code/mini_project_v2/sw/mini_project_v3_bsp//libucosii_bsp.a(alt_sys_init.o) (altera_avalon_jtag_uart_init)
/home/nathan/Documents/Cours/EPFL_RTES_CS476/Code/mini_project_v2/sw/mini_project_v3_bsp//libucosii_bsp.a(altera_avalon_jtag_uart_ioctl.o)
                              /home/nathan/Documents/Cours/EPFL_RTES_CS476/Code/mini_project_v2/sw/mini_project_v3_bsp//libucosii_bsp.a(altera_avalon_jtag_uart_fd.o) (altera_avalon_jtag_uart_ioctl)
/home/nathan/Documents/Cours/EPFL_RTES_CS476/Code/mini_project_v2/sw/mini_project_v3_bsp//libucosii_bsp.a(altera_avalon_jtag_uart_read.o)
                              /home/nathan/Documents/Cours/EPFL_RTES_CS476/Code/mini_project_v2/sw/mini_project_v3_bsp//libucosii_bsp.a(altera_avalon_jtag_uart_fd.o) (altera_avalon_jtag_uart_read)
/home/nathan/Documents/Cours/EPFL_RTES_CS476/Code/mini_project_v2/sw/mini_project_v3_bsp//libucosii_bsp.a(altera_avalon_jtag_uart_write.o)
                              /home/nathan/Documents/Cours/EPFL_RTES_CS476/Code/mini_project_v2/sw/mini_project_v3_bsp//libucosii_bsp.a(altera_avalon_jtag_uart_fd.o) (altera_avalon_jtag_uart_write)
/home/nathan/Documents/Cours/EPFL_RTES_CS476/Code/mini_project_v2/sw/mini_project_v3_bsp//libucosii_bsp.a(altera_avalon_timer_sc.o)
                              /home/nathan/Documents/Cours/EPFL_RTES_CS476/Code/mini_project_v2/sw/mini_project_v3_bsp//libucosii_bsp.a(alt_sys_init.o) (alt_avalon_timer_sc_init)
/home/nathan/Documents/Cours/EPFL_RTES_CS476/Code/mini_project_v2/sw/mini_project_v3_bsp//libucosii_bsp.a(alt_alarm_start.o)
                              /home/nathan/Documents/Cours/EPFL_RTES_CS476/Code/mini_project_v2/sw/mini_project_v3_bsp//libucosii_bsp.a(altera_avalon_jtag_uart_init.o) (alt_alarm_start)
/home/nathan/Documents/Cours/EPFL_RTES_CS476/Code/mini_project_v2/sw/mini_project_v3_bsp//libucosii_bsp.a(alt_dcache_flush_all.o)
                              /home/nathan/Documents/Cours/EPFL_RTES_CS476/Code/mini_project_v2/sw/mini_project_v3_bsp//libucosii_bsp.a(alt_load.o) (alt_dcache_flush_all)
/home/nathan/Documents/Cours/EPFL_RTES_CS476/Code/mini_project_v2/sw/mini_project_v3_bsp//libucosii_bsp.a(alt_dev_llist_insert.o)
                              /home/nathan/Documents/Cours/EPFL_RTES_CS476/Code/mini_project_v2/sw/mini_project_v3_bsp//libucosii_bsp.a(alt_sys_init.o) (alt_dev_llist_insert)
/home/nathan/Documents/Cours/EPFL_RTES_CS476/Code/mini_project_v2/sw/mini_project_v3_bsp//libucosii_bsp.a(alt_do_ctors.o)
                              /home/nathan/Documents/Cours/EPFL_RTES_CS476/Code/mini_project_v2/sw/mini_project_v3_bsp//libucosii_bsp.a(alt_main.o) (_do_ctors)
/home/nathan/Documents/Cours/EPFL_RTES_CS476/Code/mini_project_v2/sw/mini_project_v3_bsp//libucosii_bsp.a(alt_do_dtors.o)
                              /home/nathan/Documents/Cours/EPFL_RTES_CS476/Code/mini_project_v2/sw/mini_project_v3_bsp//libucosii_bsp.a(alt_main.o) (_do_dtors)
/home/nathan/Documents/Cours/EPFL_RTES_CS476/Code/mini_project_v2/sw/mini_project_v3_bsp//libucosii_bsp.a(alt_icache_flush_all.o)
                              /home/nathan/Documents/Cours/EPFL_RTES_CS476/Code/mini_project_v2/sw/mini_project_v3_bsp//libucosii_bsp.a(alt_load.o) (alt_icache_flush_all)
/home/nathan/Documents/Cours/EPFL_RTES_CS476/Code/mini_project_v2/sw/mini_project_v3_bsp//libucosii_bsp.a(alt_iic.o)
                              /home/nathan/Documents/Cours/EPFL_RTES_CS476/Code/mini_project_v2/sw/mini_project_v3_bsp//libucosii_bsp.a(altera_avalon_jtag_uart_init.o) (alt_ic_isr_register)
/home/nathan/Documents/Cours/EPFL_RTES_CS476/Code/mini_project_v2/sw/mini_project_v3_bsp//libucosii_bsp.a(alt_iic_isr_register.o)
                              /home/nathan/Documents/Cours/EPFL_RTES_CS476/Code/mini_project_v2/sw/mini_project_v3_bsp//libucosii_bsp.a(alt_iic.o) (alt_iic_isr_register)
/home/nathan/Documents/Cours/EPFL_RTES_CS476/Code/mini_project_v2/sw/mini_project_v3_bsp//libucosii_bsp.a(alt_io_redirect.o)
                              /home/nathan/Documents/Cours/EPFL_RTES_CS476/Code/mini_project_v2/sw/mini_project_v3_bsp//libucosii_bsp.a(alt_main.o) (alt_io_redirect)
/home/nathan/Documents/Cours/EPFL_RTES_CS476/Code/mini_project_v2/sw/mini_project_v3_bsp//libucosii_bsp.a(alt_irq_entry.o)
                              /home/nathan/Documents/Cours/EPFL_RTES_CS476/Code/mini_project_v2/sw/mini_project_v3_bsp//libucosii_bsp.a(alt_iic_isr_register.o) (alt_irq_entry)
/home/nathan/Documents/Cours/EPFL_RTES_CS476/Code/mini_project_v2/sw/mini_project_v3_bsp//libucosii_bsp.a(alt_irq_handler.o)
                              /home/nathan/Documents/Cours/EPFL_RTES_CS476/Code/mini_project_v2/sw/mini_project_v3_bsp//libucosii_bsp.a(alt_iic_isr_register.o) (alt_irq)
/home/nathan/Documents/Cours/EPFL_RTES_CS476/Code/mini_project_v2/sw/mini_project_v3_bsp//libucosii_bsp.a(alt_irq_vars.o)
                              /home/nathan/Documents/Cours/EPFL_RTES_CS476/Code/mini_project_v2/sw/mini_project_v3_bsp//libucosii_bsp.a(alt_iic.o) (alt_irq_active)
/home/nathan/Documents/Cours/EPFL_RTES_CS476/Code/mini_project_v2/sw/mini_project_v3_bsp//libucosii_bsp.a(alt_open.o)
                              /home/nathan/Documents/Cours/EPFL_RTES_CS476/Code/mini_project_v2/sw/mini_project_v3_bsp//libucosii_bsp.a(alt_io_redirect.o) (open)
/home/nathan/Documents/Cours/EPFL_RTES_CS476/Code/mini_project_v2/sw/mini_project_v3_bsp//libucosii_bsp.a(alt_tick.o)
                              /home/nathan/Documents/Cours/EPFL_RTES_CS476/Code/mini_project_v2/sw/mini_project_v3_bsp//libucosii_bsp.a(altera_avalon_jtag_uart_init.o) (_alt_tick_rate)
/home/nathan/Documents/Cours/EPFL_RTES_CS476/Code/mini_project_v2/sw/mini_project_v3_bsp//libucosii_bsp.a(altera_nios2_gen2_irq.o)
                              /home/nathan/Documents/Cours/EPFL_RTES_CS476/Code/mini_project_v2/sw/mini_project_v3_bsp//libucosii_bsp.a(alt_sys_init.o) (altera_nios2_gen2_irq_init)
/home/nathan/Documents/Cours/EPFL_RTES_CS476/Code/mini_project_v2/sw/mini_project_v3_bsp//libucosii_bsp.a(os_cpu_a.o)
                              /home/nathan/Documents/Cours/EPFL_RTES_CS476/Code/mini_project_v2/sw/mini_project_v3_bsp//libucosii_bsp.a(os_core.o) (OSIntCtxSw)
/home/nathan/Documents/Cours/EPFL_RTES_CS476/Code/mini_project_v2/sw/mini_project_v3_bsp//libucosii_bsp.a(os_cpu_c.o)
                              /home/nathan/Documents/Cours/EPFL_RTES_CS476/Code/mini_project_v2/sw/mini_project_v3_bsp//libucosii_bsp.a(os_task.o) (OSTaskStkInit)
/home/nathan/Documents/Cours/EPFL_RTES_CS476/Code/mini_project_v2/sw/mini_project_v3_bsp//libucosii_bsp.a(alt_exception_entry.o)
                              /home/nathan/Documents/Cours/EPFL_RTES_CS476/Code/mini_project_v2/sw/mini_project_v3_bsp//libucosii_bsp.a(alt_irq_entry.o) (alt_exception)
/home/nathan/Documents/Cours/EPFL_RTES_CS476/Code/mini_project_v2/sw/mini_project_v3_bsp//libucosii_bsp.a(alt_find_dev.o)
                              /home/nathan/Documents/Cours/EPFL_RTES_CS476/Code/mini_project_v2/sw/mini_project_v3_bsp//libucosii_bsp.a(alt_open.o) (alt_find_dev)
/home/nathan/Documents/Cours/EPFL_RTES_CS476/Code/mini_project_v2/sw/mini_project_v3_bsp//libucosii_bsp.a(alt_find_file.o)
                              /home/nathan/Documents/Cours/EPFL_RTES_CS476/Code/mini_project_v2/sw/mini_project_v3_bsp//libucosii_bsp.a(alt_open.o) (alt_find_file)
/home/nathan/Documents/Cours/EPFL_RTES_CS476/Code/mini_project_v2/sw/mini_project_v3_bsp//libucosii_bsp.a(alt_get_fd.o)
                              /home/nathan/Documents/Cours/EPFL_RTES_CS476/Code/mini_project_v2/sw/mini_project_v3_bsp//libucosii_bsp.a(alt_open.o) (alt_get_fd)
/home/nathan/Documents/Cours/EPFL_RTES_CS476/Code/mini_project_v2/sw/mini_project_v3_bsp//libucosii_bsp.a(alt_instruction_exception_entry.o)
                              /home/nathan/Documents/Cours/EPFL_RTES_CS476/Code/mini_project_v2/sw/mini_project_v3_bsp//libucosii_bsp.a(alt_exception_entry.o) (alt_instruction_exception_entry)
/home/nathan/Documents/Misc/quartus-free/pkg/quartus-free/opt/altera/18.1/nios2eds/bin/gnu/H-x86_64-pc-linux-gnu/bin/../lib/gcc/nios2-elf/5.3.0/../../../../../H-x86_64-pc-linux-gnu/nios2-elf/lib/libc.a(lib_a-atexit.o)
                              /home/nathan/Documents/Cours/EPFL_RTES_CS476/Code/mini_project_v2/sw/mini_project_v3_bsp//libucosii_bsp.a(alt_main.o) (atexit)
/home/nathan/Documents/Misc/quartus-free/pkg/quartus-free/opt/altera/18.1/nios2eds/bin/gnu/H-x86_64-pc-linux-gnu/bin/../lib/gcc/nios2-elf/5.3.0/../../../../../H-x86_64-pc-linux-gnu/nios2-elf/lib/libc.a(lib_a-exit.o)
                              /home/nathan/Documents/Cours/EPFL_RTES_CS476/Code/mini_project_v2/sw/mini_project_v3_bsp//libucosii_bsp.a(alt_main.o) (exit)
/home/nathan/Documents/Misc/quartus-free/pkg/quartus-free/opt/altera/18.1/nios2eds/bin/gnu/H-x86_64-pc-linux-gnu/bin/../lib/gcc/nios2-elf/5.3.0/../../../../../H-x86_64-pc-linux-gnu/nios2-elf/lib/libc.a(lib_a-memcmp.o)
                              /home/nathan/Documents/Cours/EPFL_RTES_CS476/Code/mini_project_v2/sw/mini_project_v3_bsp//libucosii_bsp.a(alt_find_dev.o) (memcmp)
/home/nathan/Documents/Misc/quartus-free/pkg/quartus-free/opt/altera/18.1/nios2eds/bin/gnu/H-x86_64-pc-linux-gnu/bin/../lib/gcc/nios2-elf/5.3.0/../../../../../H-x86_64-pc-linux-gnu/nios2-elf/lib/libc.a(lib_a-__atexit.o)
                              /home/nathan/Documents/Misc/quartus-free/pkg/quartus-free/opt/altera/18.1/nios2eds/bin/gnu/H-x86_64-pc-linux-gnu/bin/../lib/gcc/nios2-elf/5.3.0/../../../../../H-x86_64-pc-linux-gnu/nios2-elf/lib/libc.a(lib_a-atexit.o) (__register_exitproc)
/home/nathan/Documents/Misc/quartus-free/pkg/quartus-free/opt/altera/18.1/nios2eds/bin/gnu/H-x86_64-pc-linux-gnu/bin/../lib/gcc/nios2-elf/5.3.0/../../../../../H-x86_64-pc-linux-gnu/nios2-elf/lib/libc.a(lib_a-__call_atexit.o)
                              /home/nathan/Documents/Misc/quartus-free/pkg/quartus-free/opt/altera/18.1/nios2eds/bin/gnu/H-x86_64-pc-linux-gnu/bin/../lib/gcc/nios2-elf/5.3.0/../../../../../H-x86_64-pc-linux-gnu/nios2-elf/lib/libc.a(lib_a-exit.o) (__call_exitprocs)
/home/nathan/Documents/Cours/EPFL_RTES_CS476/Code/mini_project_v2/sw/mini_project_v3_bsp//libucosii_bsp.a(alt_exit.o)
                              /home/nathan/Documents/Misc/quartus-free/pkg/quartus-free/opt/altera/18.1/nios2eds/bin/gnu/H-x86_64-pc-linux-gnu/bin/../lib/gcc/nios2-elf/5.3.0/../../../../../H-x86_64-pc-linux-gnu/nios2-elf/lib/libc.a(lib_a-exit.o) (_exit)

Allocating common symbols
Common symbol       size              file

alt_irq             0x100             /home/nathan/Documents/Cours/EPFL_RTES_CS476/Code/mini_project_v2/sw/mini_project_v3_bsp//libucosii_bsp.a(alt_irq_handler.o)
task1_stk           0x1000            obj/default/mini_project_with_fake_camera.o
OSLockNesting       0x1               /home/nathan/Documents/Cours/EPFL_RTES_CS476/Code/mini_project_v2/sw/mini_project_v3_bsp//libucosii_bsp.a(os_core.o)
OSRunning           0x1               /home/nathan/Documents/Cours/EPFL_RTES_CS476/Code/mini_project_v2/sw/mini_project_v3_bsp//libucosii_bsp.a(os_core.o)
OSIdleCtr           0x4               /home/nathan/Documents/Cours/EPFL_RTES_CS476/Code/mini_project_v2/sw/mini_project_v3_bsp//libucosii_bsp.a(os_core.o)
OSPrioHighRdy       0x1               /home/nathan/Documents/Cours/EPFL_RTES_CS476/Code/mini_project_v2/sw/mini_project_v3_bsp//libucosii_bsp.a(os_core.o)
errno               0x4               /home/nathan/Documents/Misc/quartus-free/pkg/quartus-free/opt/altera/18.1/nios2eds/bin/gnu/H-x86_64-pc-linux-gnu/bin/../lib/gcc/nios2-elf/5.3.0/../../../../../H-x86_64-pc-linux-gnu/nios2-elf/lib/libc.a(lib_a-int_errno.o)
alt_heapsem         0x4               /home/nathan/Documents/Cours/EPFL_RTES_CS476/Code/mini_project_v2/sw/mini_project_v3_bsp//libucosii_bsp.a(alt_malloc_lock.o)
OSFlagTbl           0x370             /home/nathan/Documents/Cours/EPFL_RTES_CS476/Code/mini_project_v2/sw/mini_project_v3_bsp//libucosii_bsp.a(os_core.o)
OSPrioCur           0x1               /home/nathan/Documents/Cours/EPFL_RTES_CS476/Code/mini_project_v2/sw/mini_project_v3_bsp//libucosii_bsp.a(os_core.o)
OSTCBList           0x4               /home/nathan/Documents/Cours/EPFL_RTES_CS476/Code/mini_project_v2/sw/mini_project_v3_bsp//libucosii_bsp.a(os_core.o)
alt_fd_list_lock    0x4               /home/nathan/Documents/Cours/EPFL_RTES_CS476/Code/mini_project_v2/sw/mini_project_v3_bsp//libucosii_bsp.a(alt_dev.o)
OSMemTbl            0xc30             /home/nathan/Documents/Cours/EPFL_RTES_CS476/Code/mini_project_v2/sw/mini_project_v3_bsp//libucosii_bsp.a(os_core.o)
OSTickStepState     0x1               /home/nathan/Documents/Cours/EPFL_RTES_CS476/Code/mini_project_v2/sw/mini_project_v3_bsp//libucosii_bsp.a(os_core.o)
OSTaskStatStk       0x800             /home/nathan/Documents/Cours/EPFL_RTES_CS476/Code/mini_project_v2/sw/mini_project_v3_bsp//libucosii_bsp.a(os_core.o)
OSCtxSwCtr          0x4               /home/nathan/Documents/Cours/EPFL_RTES_CS476/Code/mini_project_v2/sw/mini_project_v3_bsp//libucosii_bsp.a(os_core.o)
OSIdleCtrMax        0x4               /home/nathan/Documents/Cours/EPFL_RTES_CS476/Code/mini_project_v2/sw/mini_project_v3_bsp//libucosii_bsp.a(os_core.o)
OSTCBFreeList       0x4               /home/nathan/Documents/Cours/EPFL_RTES_CS476/Code/mini_project_v2/sw/mini_project_v3_bsp//libucosii_bsp.a(os_core.o)
msg_queue           0x1000            obj/default/mini_project_with_fake_camera.o
OSCPUUsage          0x1               /home/nathan/Documents/Cours/EPFL_RTES_CS476/Code/mini_project_v2/sw/mini_project_v3_bsp//libucosii_bsp.a(os_core.o)
OSTaskCtr           0x1               /home/nathan/Documents/Cours/EPFL_RTES_CS476/Code/mini_project_v2/sw/mini_project_v3_bsp//libucosii_bsp.a(os_core.o)
OSMemFreeList       0x4               /home/nathan/Documents/Cours/EPFL_RTES_CS476/Code/mini_project_v2/sw/mini_project_v3_bsp//libucosii_bsp.a(os_core.o)
OSQTbl              0x1e0             /home/nathan/Documents/Cours/EPFL_RTES_CS476/Code/mini_project_v2/sw/mini_project_v3_bsp//libucosii_bsp.a(os_core.o)
OSTCBHighRdy        0x4               /home/nathan/Documents/Cours/EPFL_RTES_CS476/Code/mini_project_v2/sw/mini_project_v3_bsp//libucosii_bsp.a(os_core.o)
OSQFreeList         0x4               /home/nathan/Documents/Cours/EPFL_RTES_CS476/Code/mini_project_v2/sw/mini_project_v3_bsp//libucosii_bsp.a(os_core.o)
OSRdyGrp            0x1               /home/nathan/Documents/Cours/EPFL_RTES_CS476/Code/mini_project_v2/sw/mini_project_v3_bsp//libucosii_bsp.a(os_core.o)
task2_stk           0x1000            obj/default/mini_project_with_fake_camera.o
OSRdyTbl            0x3               /home/nathan/Documents/Cours/EPFL_RTES_CS476/Code/mini_project_v2/sw/mini_project_v3_bsp//libucosii_bsp.a(os_core.o)
OSEventFreeList     0x4               /home/nathan/Documents/Cours/EPFL_RTES_CS476/Code/mini_project_v2/sw/mini_project_v3_bsp//libucosii_bsp.a(os_core.o)
OSIntNesting        0x1               /home/nathan/Documents/Cours/EPFL_RTES_CS476/Code/mini_project_v2/sw/mini_project_v3_bsp//libucosii_bsp.a(os_core.o)
OSTCBCur            0x4               /home/nathan/Documents/Cours/EPFL_RTES_CS476/Code/mini_project_v2/sw/mini_project_v3_bsp//libucosii_bsp.a(os_core.o)
OSTime              0x4               /home/nathan/Documents/Cours/EPFL_RTES_CS476/Code/mini_project_v2/sw/mini_project_v3_bsp//libucosii_bsp.a(os_core.o)
OSTaskIdleStk       0x800             /home/nathan/Documents/Cours/EPFL_RTES_CS476/Code/mini_project_v2/sw/mini_project_v3_bsp//libucosii_bsp.a(os_core.o)
OSEventTbl          0xb40             /home/nathan/Documents/Cours/EPFL_RTES_CS476/Code/mini_project_v2/sw/mini_project_v3_bsp//libucosii_bsp.a(os_core.o)
OSTCBTbl            0x510             /home/nathan/Documents/Cours/EPFL_RTES_CS476/Code/mini_project_v2/sw/mini_project_v3_bsp//libucosii_bsp.a(os_core.o)
OSFlagFreeList      0x4               /home/nathan/Documents/Cours/EPFL_RTES_CS476/Code/mini_project_v2/sw/mini_project_v3_bsp//libucosii_bsp.a(os_core.o)
OSStatRdy           0x1               /home/nathan/Documents/Cours/EPFL_RTES_CS476/Code/mini_project_v2/sw/mini_project_v3_bsp//libucosii_bsp.a(os_core.o)
OSTCBPrioTbl        0x54              /home/nathan/Documents/Cours/EPFL_RTES_CS476/Code/mini_project_v2/sw/mini_project_v3_bsp//libucosii_bsp.a(os_core.o)
queue_res           0x4               obj/default/mini_project_with_fake_camera.o
alt_envsem          0x4               /home/nathan/Documents/Cours/EPFL_RTES_CS476/Code/mini_project_v2/sw/mini_project_v3_bsp//libucosii_bsp.a(alt_env_lock.o)
OSIdleCtrRun        0x4               /home/nathan/Documents/Cours/EPFL_RTES_CS476/Code/mini_project_v2/sw/mini_project_v3_bsp//libucosii_bsp.a(os_core.o)

Memory Configuration

Name             Origin             Length             Attributes
reset            0x0000000000000000 0x0000000000000020
sdram_controller_0 0x0000000000000020 0x0000000003ffffe0
*default*        0x0000000000000000 0xffffffffffffffff

Linker script and memory map

LOAD /home/nathan/Documents/Cours/EPFL_RTES_CS476/Code/mini_project_v2/sw/mini_project_v3_bsp//obj/HAL/src/crt0.o
LOAD obj/default/mini_project_with_fake_camera.o
LOAD /home/nathan/Documents/Misc/quartus-free/pkg/quartus-free/opt/altera/18.1/nios2eds/bin/gnu/H-x86_64-pc-linux-gnu/bin/../lib/gcc/nios2-elf/5.3.0/../../../../../H-x86_64-pc-linux-gnu/nios2-elf/lib/libstdc++.a
LOAD /home/nathan/Documents/Misc/quartus-free/pkg/quartus-free/opt/altera/18.1/nios2eds/bin/gnu/H-x86_64-pc-linux-gnu/bin/../lib/gcc/nios2-elf/5.3.0/../../../../../H-x86_64-pc-linux-gnu/nios2-elf/lib/libm.a
LOAD /home/nathan/Documents/Misc/quartus-free/pkg/quartus-free/opt/altera/18.1/nios2eds/bin/gnu/H-x86_64-pc-linux-gnu/bin/../lib/gcc/nios2-elf/5.3.0/libgcc.a
START GROUP
LOAD /home/nathan/Documents/Misc/quartus-free/pkg/quartus-free/opt/altera/18.1/nios2eds/bin/gnu/H-x86_64-pc-linux-gnu/bin/../lib/gcc/nios2-elf/5.3.0/../../../../../H-x86_64-pc-linux-gnu/nios2-elf/lib/libc.a
LOAD /home/nathan/Documents/Misc/quartus-free/pkg/quartus-free/opt/altera/18.1/nios2eds/bin/gnu/H-x86_64-pc-linux-gnu/bin/../lib/gcc/nios2-elf/5.3.0/libgcc.a
LOAD /home/nathan/Documents/Cours/EPFL_RTES_CS476/Code/mini_project_v2/sw/mini_project_v3_bsp//libucosii_bsp.a
LOAD /home/nathan/Documents/Misc/quartus-free/pkg/quartus-free/opt/altera/18.1/nios2eds/bin/gnu/H-x86_64-pc-linux-gnu/bin/../lib/gcc/nios2-elf/5.3.0/../../../../../H-x86_64-pc-linux-gnu/nios2-elf/lib/libm.a
END GROUP
LOAD /home/nathan/Documents/Misc/quartus-free/pkg/quartus-free/opt/altera/18.1/nios2eds/bin/gnu/H-x86_64-pc-linux-gnu/bin/../lib/gcc/nios2-elf/5.3.0/libgcc.a
                0x0000000000000000                __alt_mem_sdram_controller_0 = 0x0

.entry          0x0000000000000000       0x20
 *(.entry)
 .entry         0x0000000000000000       0x20 /home/nathan/Documents/Cours/EPFL_RTES_CS476/Code/mini_project_v2/sw/mini_project_v3_bsp//obj/HAL/src/crt0.o
                0x0000000000000000                __reset

.exceptions     0x0000000000000020      0x224
                0x0000000000000020                PROVIDE (__ram_exceptions_start, ABSOLUTE (.))
                0x0000000000000020                . = ALIGN (0x20)
 *(.irq)
 *(.exceptions.entry.label)
 .exceptions.entry.label
                0x0000000000000020        0x0 /home/nathan/Documents/Cours/EPFL_RTES_CS476/Code/mini_project_v2/sw/mini_project_v3_bsp//libucosii_bsp.a(alt_irq_entry.o)
                0x0000000000000020                alt_irq_entry
 .exceptions.entry.label
                0x0000000000000020        0x0 /home/nathan/Documents/Cours/EPFL_RTES_CS476/Code/mini_project_v2/sw/mini_project_v3_bsp//libucosii_bsp.a(alt_exception_entry.o)
                0x0000000000000020                alt_exception
 *(.exceptions.entry.user)
 *(.exceptions.entry.ecc_fatal)
 *(.exceptions.entry)
 .exceptions.entry
                0x0000000000000020       0x54 /home/nathan/Documents/Cours/EPFL_RTES_CS476/Code/mini_project_v2/sw/mini_project_v3_bsp//libucosii_bsp.a(alt_exception_entry.o)
 *(.exceptions.irqtest.user)
 *(.exceptions.irqtest)
 .exceptions.irqtest
                0x0000000000000074       0x10 /home/nathan/Documents/Cours/EPFL_RTES_CS476/Code/mini_project_v2/sw/mini_project_v3_bsp//libucosii_bsp.a(alt_irq_entry.o)
 *(.exceptions.irqhandler.user)
 *(.exceptions.irqhandler)
 .exceptions.irqhandler
                0x0000000000000084        0x4 /home/nathan/Documents/Cours/EPFL_RTES_CS476/Code/mini_project_v2/sw/mini_project_v3_bsp//libucosii_bsp.a(alt_irq_entry.o)
 *(.exceptions.irqreturn.user)
 *(.exceptions.irqreturn)
 .exceptions.irqreturn
                0x0000000000000088        0x4 /home/nathan/Documents/Cours/EPFL_RTES_CS476/Code/mini_project_v2/sw/mini_project_v3_bsp//libucosii_bsp.a(alt_irq_entry.o)
 *(.exceptions.notirq.label)
 .exceptions.notirq.label
                0x000000000000008c        0x0 /home/nathan/Documents/Cours/EPFL_RTES_CS476/Code/mini_project_v2/sw/mini_project_v3_bsp//libucosii_bsp.a(alt_irq_entry.o)
 *(.exceptions.notirq.user)
 *(.exceptions.notirq)
 .exceptions.notirq
                0x000000000000008c        0x8 /home/nathan/Documents/Cours/EPFL_RTES_CS476/Code/mini_project_v2/sw/mini_project_v3_bsp//libucosii_bsp.a(alt_exception_entry.o)
 *(.exceptions.soft.user)
 *(.exceptions.soft)
 *(.exceptions.unknown.user)
 *(.exceptions.unknown)
 .exceptions.unknown
                0x0000000000000094       0x14 /home/nathan/Documents/Cours/EPFL_RTES_CS476/Code/mini_project_v2/sw/mini_project_v3_bsp//libucosii_bsp.a(alt_exception_entry.o)
 *(.exceptions.exit.label)
 .exceptions.exit.label
                0x00000000000000a8        0x0 /home/nathan/Documents/Cours/EPFL_RTES_CS476/Code/mini_project_v2/sw/mini_project_v3_bsp//libucosii_bsp.a(alt_irq_entry.o)
 .exceptions.exit.label
                0x00000000000000a8        0x0 /home/nathan/Documents/Cours/EPFL_RTES_CS476/Code/mini_project_v2/sw/mini_project_v3_bsp//libucosii_bsp.a(alt_exception_entry.o)
 *(.exceptions.exit.user)
 *(.exceptions.exit)
 .exceptions.exit
                0x00000000000000a8       0x54 /home/nathan/Documents/Cours/EPFL_RTES_CS476/Code/mini_project_v2/sw/mini_project_v3_bsp//libucosii_bsp.a(alt_exception_entry.o)
 *(.exceptions)
 .exceptions    0x00000000000000fc       0xd4 /home/nathan/Documents/Cours/EPFL_RTES_CS476/Code/mini_project_v2/sw/mini_project_v3_bsp//libucosii_bsp.a(alt_irq_handler.o)
                0x00000000000000fc                alt_irq_handler
 .exceptions    0x00000000000001d0       0x74 /home/nathan/Documents/Cours/EPFL_RTES_CS476/Code/mini_project_v2/sw/mini_project_v3_bsp//libucosii_bsp.a(alt_instruction_exception_entry.o)
                0x00000000000001d0                alt_instruction_exception_entry
                0x0000000000000244                PROVIDE (__ram_exceptions_end, ABSOLUTE (.))
                0x0000000000000020                PROVIDE (__flash_exceptions_start, LOADADDR (.exceptions))

.text           0x0000000000000244    0x17988
                [!provide]                        PROVIDE (stext, ABSOLUTE (.))
 *(.interp)
 *(.hash)
 *(.dynsym)
 *(.dynstr)
 *(.gnu.version)
 *(.gnu.version_d)
 *(.gnu.version_r)
 *(.rel.init)
 *(.rela.init)
 *(.rel.text .rel.text.* .rel.gnu.linkonce.t.*)
 *(.rela.text .rela.text.* .rela.gnu.linkonce.t.*)
 *(.rel.fini)
 *(.rela.fini)
 *(.rel.rodata .rel.rodata.* .rel.gnu.linkonce.r.*)
 *(.rela.rodata .rela.rodata.* .rela.gnu.linkonce.r.*)
 *(.rel.data .rel.data.* .rel.gnu.linkonce.d.*)
 *(.rela.data .rela.data.* .rela.gnu.linkonce.d.*)
 *(.rel.tdata .rel.tdata.* .rel.gnu.linkonce.td.*)
 *(.rela.tdata .rela.tdata.* .rela.gnu.linkonce.td.*)
 *(.rel.tbss .rel.tbss.* .rel.gnu.linkonce.tb.*)
 *(.rela.tbss .rela.tbss.* .rela.gnu.linkonce.tb.*)
 *(.rel.ctors)
 *(.rela.ctors)
 *(.rel.dtors)
 *(.rela.dtors)
 *(.rel.got)
 *(.rela.got)
 *(.rel.sdata .rel.sdata.* .rel.gnu.linkonce.s.*)
 *(.rela.sdata .rela.sdata.* .rela.gnu.linkonce.s.*)
 *(.rel.sbss .rel.sbss.* .rel.gnu.linkonce.sb.*)
 *(.rela.sbss .rela.sbss.* .rela.gnu.linkonce.sb.*)
 *(.rel.sdata2 .rel.sdata2.* .rel.gnu.linkonce.s2.*)
 *(.rela.sdata2 .rela.sdata2.* .rela.gnu.linkonce.s2.*)
 *(.rel.sbss2 .rel.sbss2.* .rel.gnu.linkonce.sb2.*)
 *(.rela.sbss2 .rela.sbss2.* .rela.gnu.linkonce.sb2.*)
 *(.rel.bss .rel.bss.* .rel.gnu.linkonce.b.*)
 *(.rela.bss .rela.bss.* .rela.gnu.linkonce.b.*)
 *(.rel.plt)
 *(.rela.plt)
 *(.rel.dyn)
 *(.init)
 *(.plt)
 *(.text .stub .text.* .gnu.linkonce.t.*)
 .text          0x0000000000000244       0x3c /home/nathan/Documents/Cours/EPFL_RTES_CS476/Code/mini_project_v2/sw/mini_project_v3_bsp//obj/HAL/src/crt0.o
                0x0000000000000244                _start
 .text          0x0000000000000280      0x7f0 obj/default/mini_project_with_fake_camera.o
                0x0000000000000280                byte_to_disp
                0x00000000000002b8                disp_to_byte
                0x0000000000000328                print_byte
                0x000000000000040c                print_pixel
                0x00000000000004b0                calculAccel
                0x000000000000051c                calculC
                0x0000000000000648                task_call_accel
                0x00000000000007d4                task_fake_camera
                0x00000000000009a4                main
 .text          0x0000000000000a70      0x1b4 /home/nathan/Documents/Misc/quartus-free/pkg/quartus-free/opt/altera/18.1/nios2eds/bin/gnu/H-x86_64-pc-linux-gnu/bin/../lib/gcc/nios2-elf/5.3.0/libgcc.a(lib2-divmod.o)
                0x0000000000000a70                __divsi3
                0x0000000000000af4                __modsi3
                0x0000000000000b68                __udivsi3
                0x0000000000000bcc                __umodsi3
 .text          0x0000000000000c24        0x0 /home/nathan/Documents/Misc/quartus-free/pkg/quartus-free/opt/altera/18.1/nios2eds/bin/gnu/H-x86_64-pc-linux-gnu/bin/../lib/gcc/nios2-elf/5.3.0/../../../../../H-x86_64-pc-linux-gnu/nios2-elf/lib/libc.a(lib_a-malloc.o)
 .text.malloc   0x0000000000000c24       0x14 /home/nathan/Documents/Misc/quartus-free/pkg/quartus-free/opt/altera/18.1/nios2eds/bin/gnu/H-x86_64-pc-linux-gnu/bin/../lib/gcc/nios2-elf/5.3.0/../../../../../H-x86_64-pc-linux-gnu/nios2-elf/lib/libc.a(lib_a-malloc.o)
                0x0000000000000c24                malloc
 .text.free     0x0000000000000c38       0x14 /home/nathan/Documents/Misc/quartus-free/pkg/quartus-free/opt/altera/18.1/nios2eds/bin/gnu/H-x86_64-pc-linux-gnu/bin/../lib/gcc/nios2-elf/5.3.0/../../../../../H-x86_64-pc-linux-gnu/nios2-elf/lib/libc.a(lib_a-malloc.o)
                0x0000000000000c38                free
 .text          0x0000000000000c4c        0x0 /home/nathan/Documents/Misc/quartus-free/pkg/quartus-free/opt/altera/18.1/nios2eds/bin/gnu/H-x86_64-pc-linux-gnu/bin/../lib/gcc/nios2-elf/5.3.0/../../../../../H-x86_64-pc-linux-gnu/nios2-elf/lib/libc.a(lib_a-mallocr.o)
 .text._malloc_r
                0x0000000000000c4c      0x80c /home/nathan/Documents/Misc/quartus-free/pkg/quartus-free/opt/altera/18.1/nios2eds/bin/gnu/H-x86_64-pc-linux-gnu/bin/../lib/gcc/nios2-elf/5.3.0/../../../../../H-x86_64-pc-linux-gnu/nios2-elf/lib/libc.a(lib_a-mallocr.o)
                0x0000000000000c4c                _malloc_r
 .text          0x0000000000001458        0x0 /home/nathan/Documents/Misc/quartus-free/pkg/quartus-free/opt/altera/18.1/nios2eds/bin/gnu/H-x86_64-pc-linux-gnu/bin/../lib/gcc/nios2-elf/5.3.0/../../../../../H-x86_64-pc-linux-gnu/nios2-elf/lib/libc.a(lib_a-printf.o)
 .text._printf_r
                0x0000000000001458       0x30 /home/nathan/Documents/Misc/quartus-free/pkg/quartus-free/opt/altera/18.1/nios2eds/bin/gnu/H-x86_64-pc-linux-gnu/bin/../lib/gcc/nios2-elf/5.3.0/../../../../../H-x86_64-pc-linux-gnu/nios2-elf/lib/libc.a(lib_a-printf.o)
                0x0000000000001458                _printf_r
 .text.printf   0x0000000000001488       0x3c /home/nathan/Documents/Misc/quartus-free/pkg/quartus-free/opt/altera/18.1/nios2eds/bin/gnu/H-x86_64-pc-linux-gnu/bin/../lib/gcc/nios2-elf/5.3.0/../../../../../H-x86_64-pc-linux-gnu/nios2-elf/lib/libc.a(lib_a-printf.o)
                0x0000000000001488                printf
 .text          0x00000000000014c4        0x0 /home/nathan/Documents/Misc/quartus-free/pkg/quartus-free/opt/altera/18.1/nios2eds/bin/gnu/H-x86_64-pc-linux-gnu/bin/../lib/gcc/nios2-elf/5.3.0/../../../../../H-x86_64-pc-linux-gnu/nios2-elf/lib/libc.a(lib_a-puts.o)
 .text._puts_r  0x00000000000014c4       0xc0 /home/nathan/Documents/Misc/quartus-free/pkg/quartus-free/opt/altera/18.1/nios2eds/bin/gnu/H-x86_64-pc-linux-gnu/bin/../lib/gcc/nios2-elf/5.3.0/../../../../../H-x86_64-pc-linux-gnu/nios2-elf/lib/libc.a(lib_a-puts.o)
                0x00000000000014c4                _puts_r
 .text.puts     0x0000000000001584       0x14 /home/nathan/Documents/Misc/quartus-free/pkg/quartus-free/opt/altera/18.1/nios2eds/bin/gnu/H-x86_64-pc-linux-gnu/bin/../lib/gcc/nios2-elf/5.3.0/../../../../../H-x86_64-pc-linux-gnu/nios2-elf/lib/libc.a(lib_a-puts.o)
                0x0000000000001584                puts
 .text          0x0000000000001598        0x0 /home/nathan/Documents/Misc/quartus-free/pkg/quartus-free/opt/altera/18.1/nios2eds/bin/gnu/H-x86_64-pc-linux-gnu/bin/../lib/gcc/nios2-elf/5.3.0/../../../../../H-x86_64-pc-linux-gnu/nios2-elf/lib/libc.a(lib_a-sbrkr.o)
 .text._sbrk_r  0x0000000000001598       0x54 /home/nathan/Documents/Misc/quartus-free/pkg/quartus-free/opt/altera/18.1/nios2eds/bin/gnu/H-x86_64-pc-linux-gnu/bin/../lib/gcc/nios2-elf/5.3.0/../../../../../H-x86_64-pc-linux-gnu/nios2-elf/lib/libc.a(lib_a-sbrkr.o)
                0x0000000000001598                _sbrk_r
 .text          0x00000000000015ec        0x0 /home/nathan/Documents/Misc/quartus-free/pkg/quartus-free/opt/altera/18.1/nios2eds/bin/gnu/H-x86_64-pc-linux-gnu/bin/../lib/gcc/nios2-elf/5.3.0/../../../../../H-x86_64-pc-linux-gnu/nios2-elf/lib/libc.a(lib_a-strlen.o)
 .text.strlen   0x00000000000015ec       0x98 /home/nathan/Documents/Misc/quartus-free/pkg/quartus-free/opt/altera/18.1/nios2eds/bin/gnu/H-x86_64-pc-linux-gnu/bin/../lib/gcc/nios2-elf/5.3.0/../../../../../H-x86_64-pc-linux-gnu/nios2-elf/lib/libc.a(lib_a-strlen.o)
                0x00000000000015ec                strlen
 .text          0x0000000000001684        0x0 /home/nathan/Documents/Misc/quartus-free/pkg/quartus-free/opt/altera/18.1/nios2eds/bin/gnu/H-x86_64-pc-linux-gnu/bin/../lib/gcc/nios2-elf/5.3.0/../../../../../H-x86_64-pc-linux-gnu/nios2-elf/lib/libc.a(lib_a-vfprintf.o)
 .text.___vfprintf_internal_r
                0x0000000000001684     0x21f8 /home/nathan/Documents/Misc/quartus-free/pkg/quartus-free/opt/altera/18.1/nios2eds/bin/gnu/H-x86_64-pc-linux-gnu/bin/../lib/gcc/nios2-elf/5.3.0/../../../../../H-x86_64-pc-linux-gnu/nios2-elf/lib/libc.a(lib_a-vfprintf.o)
                0x0000000000001684                ___vfprintf_internal_r
 .text.__vfprintf_internal
                0x000000000000387c       0x1c /home/nathan/Documents/Misc/quartus-free/pkg/quartus-free/opt/altera/18.1/nios2eds/bin/gnu/H-x86_64-pc-linux-gnu/bin/../lib/gcc/nios2-elf/5.3.0/../../../../../H-x86_64-pc-linux-gnu/nios2-elf/lib/libc.a(lib_a-vfprintf.o)
                0x000000000000387c                __vfprintf_internal
 .text.__sbprintf
                0x0000000000003898       0xbc /home/nathan/Documents/Misc/quartus-free/pkg/quartus-free/opt/altera/18.1/nios2eds/bin/gnu/H-x86_64-pc-linux-gnu/bin/../lib/gcc/nios2-elf/5.3.0/../../../../../H-x86_64-pc-linux-gnu/nios2-elf/lib/libc.a(lib_a-vfprintf.o)
 .text          0x0000000000003954        0x0 /home/nathan/Documents/Misc/quartus-free/pkg/quartus-free/opt/altera/18.1/nios2eds/bin/gnu/H-x86_64-pc-linux-gnu/bin/../lib/gcc/nios2-elf/5.3.0/../../../../../H-x86_64-pc-linux-gnu/nios2-elf/lib/libc.a(lib_a-wsetup.o)
 .text.__swsetup_r
                0x0000000000003954      0x154 /home/nathan/Documents/Misc/quartus-free/pkg/quartus-free/opt/altera/18.1/nios2eds/bin/gnu/H-x86_64-pc-linux-gnu/bin/../lib/gcc/nios2-elf/5.3.0/../../../../../H-x86_64-pc-linux-gnu/nios2-elf/lib/libc.a(lib_a-wsetup.o)
                0x0000000000003954                __swsetup_r
 .text          0x0000000000003aa8        0x0 /home/nathan/Documents/Misc/quartus-free/pkg/quartus-free/opt/altera/18.1/nios2eds/bin/gnu/H-x86_64-pc-linux-gnu/bin/../lib/gcc/nios2-elf/5.3.0/../../../../../H-x86_64-pc-linux-gnu/nios2-elf/lib/libc.a(lib_a-dtoa.o)
 .text.quorem   0x0000000000003aa8      0x200 /home/nathan/Documents/Misc/quartus-free/pkg/quartus-free/opt/altera/18.1/nios2eds/bin/gnu/H-x86_64-pc-linux-gnu/bin/../lib/gcc/nios2-elf/5.3.0/../../../../../H-x86_64-pc-linux-gnu/nios2-elf/lib/libc.a(lib_a-dtoa.o)
 .text._dtoa_r  0x0000000000003ca8     0x1688 /home/nathan/Documents/Misc/quartus-free/pkg/quartus-free/opt/altera/18.1/nios2eds/bin/gnu/H-x86_64-pc-linux-gnu/bin/../lib/gcc/nios2-elf/5.3.0/../../../../../H-x86_64-pc-linux-gnu/nios2-elf/lib/libc.a(lib_a-dtoa.o)
                0x0000000000003ca8                _dtoa_r
 .text          0x0000000000005330        0x0 /home/nathan/Documents/Misc/quartus-free/pkg/quartus-free/opt/altera/18.1/nios2eds/bin/gnu/H-x86_64-pc-linux-gnu/bin/../lib/gcc/nios2-elf/5.3.0/../../../../../H-x86_64-pc-linux-gnu/nios2-elf/lib/libc.a(lib_a-fflush.o)
 .text.__sflush_r
                0x0000000000005330      0x21c /home/nathan/Documents/Misc/quartus-free/pkg/quartus-free/opt/altera/18.1/nios2eds/bin/gnu/H-x86_64-pc-linux-gnu/bin/../lib/gcc/nios2-elf/5.3.0/../../../../../H-x86_64-pc-linux-gnu/nios2-elf/lib/libc.a(lib_a-fflush.o)
                0x0000000000005330                __sflush_r
 .text._fflush_r
                0x000000000000554c       0x5c /home/nathan/Documents/Misc/quartus-free/pkg/quartus-free/opt/altera/18.1/nios2eds/bin/gnu/H-x86_64-pc-linux-gnu/bin/../lib/gcc/nios2-elf/5.3.0/../../../../../H-x86_64-pc-linux-gnu/nios2-elf/lib/libc.a(lib_a-fflush.o)
                0x000000000000554c                _fflush_r
 .text.fflush   0x00000000000055a8       0x30 /home/nathan/Documents/Misc/quartus-free/pkg/quartus-free/opt/altera/18.1/nios2eds/bin/gnu/H-x86_64-pc-linux-gnu/bin/../lib/gcc/nios2-elf/5.3.0/../../../../../H-x86_64-pc-linux-gnu/nios2-elf/lib/libc.a(lib_a-fflush.o)
                0x00000000000055a8                fflush
 .text          0x00000000000055d8        0x0 /home/nathan/Documents/Misc/quartus-free/pkg/quartus-free/opt/altera/18.1/nios2eds/bin/gnu/H-x86_64-pc-linux-gnu/bin/../lib/gcc/nios2-elf/5.3.0/../../../../../H-x86_64-pc-linux-gnu/nios2-elf/lib/libc.a(lib_a-findfp.o)
 .text.__fp_unlock
                0x00000000000055d8        0x8 /home/nathan/Documents/Misc/quartus-free/pkg/quartus-free/opt/altera/18.1/nios2eds/bin/gnu/H-x86_64-pc-linux-gnu/bin/../lib/gcc/nios2-elf/5.3.0/../../../../../H-x86_64-pc-linux-gnu/nios2-elf/lib/libc.a(lib_a-findfp.o)
 .text._cleanup_r
                0x00000000000055e0        0xc /home/nathan/Documents/Misc/quartus-free/pkg/quartus-free/opt/altera/18.1/nios2eds/bin/gnu/H-x86_64-pc-linux-gnu/bin/../lib/gcc/nios2-elf/5.3.0/../../../../../H-x86_64-pc-linux-gnu/nios2-elf/lib/libc.a(lib_a-findfp.o)
                0x00000000000055e0                _cleanup_r
 .text.__sinit.part.1
                0x00000000000055ec      0x19c /home/nathan/Documents/Misc/quartus-free/pkg/quartus-free/opt/altera/18.1/nios2eds/bin/gnu/H-x86_64-pc-linux-gnu/bin/../lib/gcc/nios2-elf/5.3.0/../../../../../H-x86_64-pc-linux-gnu/nios2-elf/lib/libc.a(lib_a-findfp.o)
 .text.__fp_lock
                0x0000000000005788        0x8 /home/nathan/Documents/Misc/quartus-free/pkg/quartus-free/opt/altera/18.1/nios2eds/bin/gnu/H-x86_64-pc-linux-gnu/bin/../lib/gcc/nios2-elf/5.3.0/../../../../../H-x86_64-pc-linux-gnu/nios2-elf/lib/libc.a(lib_a-findfp.o)
 .text.__sfmoreglue
                0x0000000000005790       0x68 /home/nathan/Documents/Misc/quartus-free/pkg/quartus-free/opt/altera/18.1/nios2eds/bin/gnu/H-x86_64-pc-linux-gnu/bin/../lib/gcc/nios2-elf/5.3.0/../../../../../H-x86_64-pc-linux-gnu/nios2-elf/lib/libc.a(lib_a-findfp.o)
                0x0000000000005790                __sfmoreglue
 .text.__sfp    0x00000000000057f8      0x118 /home/nathan/Documents/Misc/quartus-free/pkg/quartus-free/opt/altera/18.1/nios2eds/bin/gnu/H-x86_64-pc-linux-gnu/bin/../lib/gcc/nios2-elf/5.3.0/../../../../../H-x86_64-pc-linux-gnu/nios2-elf/lib/libc.a(lib_a-findfp.o)
                0x00000000000057f8                __sfp
 .text._cleanup
                0x0000000000005910       0x18 /home/nathan/Documents/Misc/quartus-free/pkg/quartus-free/opt/altera/18.1/nios2eds/bin/gnu/H-x86_64-pc-linux-gnu/bin/../lib/gcc/nios2-elf/5.3.0/../../../../../H-x86_64-pc-linux-gnu/nios2-elf/lib/libc.a(lib_a-findfp.o)
                0x0000000000005910                _cleanup
 .text.__sinit  0x0000000000005928       0x10 /home/nathan/Documents/Misc/quartus-free/pkg/quartus-free/opt/altera/18.1/nios2eds/bin/gnu/H-x86_64-pc-linux-gnu/bin/../lib/gcc/nios2-elf/5.3.0/../../../../../H-x86_64-pc-linux-gnu/nios2-elf/lib/libc.a(lib_a-findfp.o)
                0x0000000000005928                __sinit
 .text.__sfp_lock_acquire
                0x0000000000005938        0x4 /home/nathan/Documents/Misc/quartus-free/pkg/quartus-free/opt/altera/18.1/nios2eds/bin/gnu/H-x86_64-pc-linux-gnu/bin/../lib/gcc/nios2-elf/5.3.0/../../../../../H-x86_64-pc-linux-gnu/nios2-elf/lib/libc.a(lib_a-findfp.o)
                0x0000000000005938                __sfp_lock_acquire
 .text.__sfp_lock_release
                0x000000000000593c        0x4 /home/nathan/Documents/Misc/quartus-free/pkg/quartus-free/opt/altera/18.1/nios2eds/bin/gnu/H-x86_64-pc-linux-gnu/bin/../lib/gcc/nios2-elf/5.3.0/../../../../../H-x86_64-pc-linux-gnu/nios2-elf/lib/libc.a(lib_a-findfp.o)
                0x000000000000593c                __sfp_lock_release
 .text.__sinit_lock_acquire
                0x0000000000005940        0x4 /home/nathan/Documents/Misc/quartus-free/pkg/quartus-free/opt/altera/18.1/nios2eds/bin/gnu/H-x86_64-pc-linux-gnu/bin/../lib/gcc/nios2-elf/5.3.0/../../../../../H-x86_64-pc-linux-gnu/nios2-elf/lib/libc.a(lib_a-findfp.o)
                0x0000000000005940                __sinit_lock_acquire
 .text.__sinit_lock_release
                0x0000000000005944        0x4 /home/nathan/Documents/Misc/quartus-free/pkg/quartus-free/opt/altera/18.1/nios2eds/bin/gnu/H-x86_64-pc-linux-gnu/bin/../lib/gcc/nios2-elf/5.3.0/../../../../../H-x86_64-pc-linux-gnu/nios2-elf/lib/libc.a(lib_a-findfp.o)
                0x0000000000005944                __sinit_lock_release
 .text.__fp_lock_all
                0x0000000000005948       0x18 /home/nathan/Documents/Misc/quartus-free/pkg/quartus-free/opt/altera/18.1/nios2eds/bin/gnu/H-x86_64-pc-linux-gnu/bin/../lib/gcc/nios2-elf/5.3.0/../../../../../H-x86_64-pc-linux-gnu/nios2-elf/lib/libc.a(lib_a-findfp.o)
                0x0000000000005948                __fp_lock_all
 .text.__fp_unlock_all
                0x0000000000005960       0x18 /home/nathan/Documents/Misc/quartus-free/pkg/quartus-free/opt/altera/18.1/nios2eds/bin/gnu/H-x86_64-pc-linux-gnu/bin/../lib/gcc/nios2-elf/5.3.0/../../../../../H-x86_64-pc-linux-gnu/nios2-elf/lib/libc.a(lib_a-findfp.o)
                0x0000000000005960                __fp_unlock_all
 .text          0x0000000000005978        0x0 /home/nathan/Documents/Misc/quartus-free/pkg/quartus-free/opt/altera/18.1/nios2eds/bin/gnu/H-x86_64-pc-linux-gnu/bin/../lib/gcc/nios2-elf/5.3.0/../../../../../H-x86_64-pc-linux-gnu/nios2-elf/lib/libc.a(lib_a-freer.o)
 .text._malloc_trim_r
                0x0000000000005978      0x124 /home/nathan/Documents/Misc/quartus-free/pkg/quartus-free/opt/altera/18.1/nios2eds/bin/gnu/H-x86_64-pc-linux-gnu/bin/../lib/gcc/nios2-elf/5.3.0/../../../../../H-x86_64-pc-linux-gnu/nios2-elf/lib/libc.a(lib_a-freer.o)
                0x0000000000005978                _malloc_trim_r
 .text._free_r  0x0000000000005a9c      0x310 /home/nathan/Documents/Misc/quartus-free/pkg/quartus-free/opt/altera/18.1/nios2eds/bin/gnu/H-x86_64-pc-linux-gnu/bin/../lib/gcc/nios2-elf/5.3.0/../../../../../H-x86_64-pc-linux-gnu/nios2-elf/lib/libc.a(lib_a-freer.o)
                0x0000000000005a9c                _free_r
 .text          0x0000000000005dac        0x0 /home/nathan/Documents/Misc/quartus-free/pkg/quartus-free/opt/altera/18.1/nios2eds/bin/gnu/H-x86_64-pc-linux-gnu/bin/../lib/gcc/nios2-elf/5.3.0/../../../../../H-x86_64-pc-linux-gnu/nios2-elf/lib/libc.a(lib_a-fvwrite.o)
 .text.__sfvwrite_r
                0x0000000000005dac      0x4bc /home/nathan/Documents/Misc/quartus-free/pkg/quartus-free/opt/altera/18.1/nios2eds/bin/gnu/H-x86_64-pc-linux-gnu/bin/../lib/gcc/nios2-elf/5.3.0/../../../../../H-x86_64-pc-linux-gnu/nios2-elf/lib/libc.a(lib_a-fvwrite.o)
                0x0000000000005dac                __sfvwrite_r
 .text          0x0000000000006268        0x0 /home/nathan/Documents/Misc/quartus-free/pkg/quartus-free/opt/altera/18.1/nios2eds/bin/gnu/H-x86_64-pc-linux-gnu/bin/../lib/gcc/nios2-elf/5.3.0/../../../../../H-x86_64-pc-linux-gnu/nios2-elf/lib/libc.a(lib_a-fwalk.o)
 .text._fwalk   0x0000000000006268       0xc4 /home/nathan/Documents/Misc/quartus-free/pkg/quartus-free/opt/altera/18.1/nios2eds/bin/gnu/H-x86_64-pc-linux-gnu/bin/../lib/gcc/nios2-elf/5.3.0/../../../../../H-x86_64-pc-linux-gnu/nios2-elf/lib/libc.a(lib_a-fwalk.o)
                0x0000000000006268                _fwalk
 .text._fwalk_reent
                0x000000000000632c       0xc4 /home/nathan/Documents/Misc/quartus-free/pkg/quartus-free/opt/altera/18.1/nios2eds/bin/gnu/H-x86_64-pc-linux-gnu/bin/../lib/gcc/nios2-elf/5.3.0/../../../../../H-x86_64-pc-linux-gnu/nios2-elf/lib/libc.a(lib_a-fwalk.o)
                0x000000000000632c                _fwalk_reent
 .text          0x00000000000063f0        0x0 /home/nathan/Documents/Misc/quartus-free/pkg/quartus-free/opt/altera/18.1/nios2eds/bin/gnu/H-x86_64-pc-linux-gnu/bin/../lib/gcc/nios2-elf/5.3.0/../../../../../H-x86_64-pc-linux-gnu/nios2-elf/lib/libc.a(lib_a-impure.o)
 .text          0x00000000000063f0        0x0 /home/nathan/Documents/Misc/quartus-free/pkg/quartus-free/opt/altera/18.1/nios2eds/bin/gnu/H-x86_64-pc-linux-gnu/bin/../lib/gcc/nios2-elf/5.3.0/../../../../../H-x86_64-pc-linux-gnu/nios2-elf/lib/libc.a(lib_a-int_errno.o)
 .text          0x00000000000063f0        0x0 /home/nathan/Documents/Misc/quartus-free/pkg/quartus-free/opt/altera/18.1/nios2eds/bin/gnu/H-x86_64-pc-linux-gnu/bin/../lib/gcc/nios2-elf/5.3.0/../../../../../H-x86_64-pc-linux-gnu/nios2-elf/lib/libc.a(lib_a-locale.o)
 .text._setlocale_r
                0x00000000000063f0       0x7c /home/nathan/Documents/Misc/quartus-free/pkg/quartus-free/opt/altera/18.1/nios2eds/bin/gnu/H-x86_64-pc-linux-gnu/bin/../lib/gcc/nios2-elf/5.3.0/../../../../../H-x86_64-pc-linux-gnu/nios2-elf/lib/libc.a(lib_a-locale.o)
                0x00000000000063f0                _setlocale_r
 .text.__locale_charset
                0x000000000000646c        0xc /home/nathan/Documents/Misc/quartus-free/pkg/quartus-free/opt/altera/18.1/nios2eds/bin/gnu/H-x86_64-pc-linux-gnu/bin/../lib/gcc/nios2-elf/5.3.0/../../../../../H-x86_64-pc-linux-gnu/nios2-elf/lib/libc.a(lib_a-locale.o)
                0x000000000000646c                __locale_charset
 .text.__locale_mb_cur_max
                0x0000000000006478       0x10 /home/nathan/Documents/Misc/quartus-free/pkg/quartus-free/opt/altera/18.1/nios2eds/bin/gnu/H-x86_64-pc-linux-gnu/bin/../lib/gcc/nios2-elf/5.3.0/../../../../../H-x86_64-pc-linux-gnu/nios2-elf/lib/libc.a(lib_a-locale.o)
                0x0000000000006478                __locale_mb_cur_max
 .text.__locale_msgcharset
                0x0000000000006488        0xc /home/nathan/Documents/Misc/quartus-free/pkg/quartus-free/opt/altera/18.1/nios2eds/bin/gnu/H-x86_64-pc-linux-gnu/bin/../lib/gcc/nios2-elf/5.3.0/../../../../../H-x86_64-pc-linux-gnu/nios2-elf/lib/libc.a(lib_a-locale.o)
                0x0000000000006488                __locale_msgcharset
 .text.__locale_cjk_lang
                0x0000000000006494        0x8 /home/nathan/Documents/Misc/quartus-free/pkg/quartus-free/opt/altera/18.1/nios2eds/bin/gnu/H-x86_64-pc-linux-gnu/bin/../lib/gcc/nios2-elf/5.3.0/../../../../../H-x86_64-pc-linux-gnu/nios2-elf/lib/libc.a(lib_a-locale.o)
                0x0000000000006494                __locale_cjk_lang
 .text._localeconv_r
                0x000000000000649c        0xc /home/nathan/Documents/Misc/quartus-free/pkg/quartus-free/opt/altera/18.1/nios2eds/bin/gnu/H-x86_64-pc-linux-gnu/bin/../lib/gcc/nios2-elf/5.3.0/../../../../../H-x86_64-pc-linux-gnu/nios2-elf/lib/libc.a(lib_a-locale.o)
                0x000000000000649c                _localeconv_r
 .text.setlocale
                0x00000000000064a8       0x18 /home/nathan/Documents/Misc/quartus-free/pkg/quartus-free/opt/altera/18.1/nios2eds/bin/gnu/H-x86_64-pc-linux-gnu/bin/../lib/gcc/nios2-elf/5.3.0/../../../../../H-x86_64-pc-linux-gnu/nios2-elf/lib/libc.a(lib_a-locale.o)
                0x00000000000064a8                setlocale
 .text.localeconv
                0x00000000000064c0        0xc /home/nathan/Documents/Misc/quartus-free/pkg/quartus-free/opt/altera/18.1/nios2eds/bin/gnu/H-x86_64-pc-linux-gnu/bin/../lib/gcc/nios2-elf/5.3.0/../../../../../H-x86_64-pc-linux-gnu/nios2-elf/lib/libc.a(lib_a-locale.o)
                0x00000000000064c0                localeconv
 .text          0x00000000000064cc        0x0 /home/nathan/Documents/Misc/quartus-free/pkg/quartus-free/opt/altera/18.1/nios2eds/bin/gnu/H-x86_64-pc-linux-gnu/bin/../lib/gcc/nios2-elf/5.3.0/../../../../../H-x86_64-pc-linux-gnu/nios2-elf/lib/libc.a(lib_a-makebuf.o)
 .text.__smakebuf_r
                0x00000000000064cc      0x1bc /home/nathan/Documents/Misc/quartus-free/pkg/quartus-free/opt/altera/18.1/nios2eds/bin/gnu/H-x86_64-pc-linux-gnu/bin/../lib/gcc/nios2-elf/5.3.0/../../../../../H-x86_64-pc-linux-gnu/nios2-elf/lib/libc.a(lib_a-makebuf.o)
                0x00000000000064cc                __smakebuf_r
 .text          0x0000000000006688        0x0 /home/nathan/Documents/Misc/quartus-free/pkg/quartus-free/opt/altera/18.1/nios2eds/bin/gnu/H-x86_64-pc-linux-gnu/bin/../lib/gcc/nios2-elf/5.3.0/../../../../../H-x86_64-pc-linux-gnu/nios2-elf/lib/libc.a(lib_a-memchr.o)
 .text.memchr   0x0000000000006688       0xe4 /home/nathan/Documents/Misc/quartus-free/pkg/quartus-free/opt/altera/18.1/nios2eds/bin/gnu/H-x86_64-pc-linux-gnu/bin/../lib/gcc/nios2-elf/5.3.0/../../../../../H-x86_64-pc-linux-gnu/nios2-elf/lib/libc.a(lib_a-memchr.o)
                0x0000000000006688                memchr
 .text          0x000000000000676c        0x0 /home/nathan/Documents/Misc/quartus-free/pkg/quartus-free/opt/altera/18.1/nios2eds/bin/gnu/H-x86_64-pc-linux-gnu/bin/../lib/gcc/nios2-elf/5.3.0/../../../../../H-x86_64-pc-linux-gnu/nios2-elf/lib/libc.a(lib_a-memcpy.o)
 .text.memcpy   0x000000000000676c      0x148 /home/nathan/Documents/Misc/quartus-free/pkg/quartus-free/opt/altera/18.1/nios2eds/bin/gnu/H-x86_64-pc-linux-gnu/bin/../lib/gcc/nios2-elf/5.3.0/../../../../../H-x86_64-pc-linux-gnu/nios2-elf/lib/libc.a(lib_a-memcpy.o)
                0x000000000000676c                memcpy
 .text          0x00000000000068b4        0x0 /home/nathan/Documents/Misc/quartus-free/pkg/quartus-free/opt/altera/18.1/nios2eds/bin/gnu/H-x86_64-pc-linux-gnu/bin/../lib/gcc/nios2-elf/5.3.0/../../../../../H-x86_64-pc-linux-gnu/nios2-elf/lib/libc.a(lib_a-memmove.o)
 .text.memmove  0x00000000000068b4      0x15c /home/nathan/Documents/Misc/quartus-free/pkg/quartus-free/opt/altera/18.1/nios2eds/bin/gnu/H-x86_64-pc-linux-gnu/bin/../lib/gcc/nios2-elf/5.3.0/../../../../../H-x86_64-pc-linux-gnu/nios2-elf/lib/libc.a(lib_a-memmove.o)
                0x00000000000068b4                memmove
 .text          0x0000000000006a10        0x0 /home/nathan/Documents/Misc/quartus-free/pkg/quartus-free/opt/altera/18.1/nios2eds/bin/gnu/H-x86_64-pc-linux-gnu/bin/../lib/gcc/nios2-elf/5.3.0/../../../../../H-x86_64-pc-linux-gnu/nios2-elf/lib/libc.a(lib_a-memset.o)
 .text.memset   0x0000000000006a10      0x128 /home/nathan/Documents/Misc/quartus-free/pkg/quartus-free/opt/altera/18.1/nios2eds/bin/gnu/H-x86_64-pc-linux-gnu/bin/../lib/gcc/nios2-elf/5.3.0/../../../../../H-x86_64-pc-linux-gnu/nios2-elf/lib/libc.a(lib_a-memset.o)
                0x0000000000006a10                memset
 .text          0x0000000000006b38        0x0 /home/nathan/Documents/Misc/quartus-free/pkg/quartus-free/opt/altera/18.1/nios2eds/bin/gnu/H-x86_64-pc-linux-gnu/bin/../lib/gcc/nios2-elf/5.3.0/../../../../../H-x86_64-pc-linux-gnu/nios2-elf/lib/libc.a(lib_a-mprec.o)
 .text._Balloc  0x0000000000006b38       0xa8 /home/nathan/Documents/Misc/quartus-free/pkg/quartus-free/opt/altera/18.1/nios2eds/bin/gnu/H-x86_64-pc-linux-gnu/bin/../lib/gcc/nios2-elf/5.3.0/../../../../../H-x86_64-pc-linux-gnu/nios2-elf/lib/libc.a(lib_a-mprec.o)
                0x0000000000006b38                _Balloc
 .text._Bfree   0x0000000000006be0       0x28 /home/nathan/Documents/Misc/quartus-free/pkg/quartus-free/opt/altera/18.1/nios2eds/bin/gnu/H-x86_64-pc-linux-gnu/bin/../lib/gcc/nios2-elf/5.3.0/../../../../../H-x86_64-pc-linux-gnu/nios2-elf/lib/libc.a(lib_a-mprec.o)
                0x0000000000006be0                _Bfree
 .text.__multadd
                0x0000000000006c08      0x120 /home/nathan/Documents/Misc/quartus-free/pkg/quartus-free/opt/altera/18.1/nios2eds/bin/gnu/H-x86_64-pc-linux-gnu/bin/../lib/gcc/nios2-elf/5.3.0/../../../../../H-x86_64-pc-linux-gnu/nios2-elf/lib/libc.a(lib_a-mprec.o)
                0x0000000000006c08                __multadd
 .text.__s2b    0x0000000000006d28      0x104 /home/nathan/Documents/Misc/quartus-free/pkg/quartus-free/opt/altera/18.1/nios2eds/bin/gnu/H-x86_64-pc-linux-gnu/bin/../lib/gcc/nios2-elf/5.3.0/../../../../../H-x86_64-pc-linux-gnu/nios2-elf/lib/libc.a(lib_a-mprec.o)
                0x0000000000006d28                __s2b
 .text.__hi0bits
                0x0000000000006e2c       0x68 /home/nathan/Documents/Misc/quartus-free/pkg/quartus-free/opt/altera/18.1/nios2eds/bin/gnu/H-x86_64-pc-linux-gnu/bin/../lib/gcc/nios2-elf/5.3.0/../../../../../H-x86_64-pc-linux-gnu/nios2-elf/lib/libc.a(lib_a-mprec.o)
                0x0000000000006e2c                __hi0bits
 .text.__lo0bits
                0x0000000000006e94       0xb0 /home/nathan/Documents/Misc/quartus-free/pkg/quartus-free/opt/altera/18.1/nios2eds/bin/gnu/H-x86_64-pc-linux-gnu/bin/../lib/gcc/nios2-elf/5.3.0/../../../../../H-x86_64-pc-linux-gnu/nios2-elf/lib/libc.a(lib_a-mprec.o)
                0x0000000000006e94                __lo0bits
 .text.__i2b    0x0000000000006f44       0x3c /home/nathan/Documents/Misc/quartus-free/pkg/quartus-free/opt/altera/18.1/nios2eds/bin/gnu/H-x86_64-pc-linux-gnu/bin/../lib/gcc/nios2-elf/5.3.0/../../../../../H-x86_64-pc-linux-gnu/nios2-elf/lib/libc.a(lib_a-mprec.o)
                0x0000000000006f44                __i2b
 .text.__multiply
                0x0000000000006f80      0x1f8 /home/nathan/Documents/Misc/quartus-free/pkg/quartus-free/opt/altera/18.1/nios2eds/bin/gnu/H-x86_64-pc-linux-gnu/bin/../lib/gcc/nios2-elf/5.3.0/../../../../../H-x86_64-pc-linux-gnu/nios2-elf/lib/libc.a(lib_a-mprec.o)
                0x0000000000006f80                __multiply
 .text.__pow5mult
                0x0000000000007178      0x140 /home/nathan/Documents/Misc/quartus-free/pkg/quartus-free/opt/altera/18.1/nios2eds/bin/gnu/H-x86_64-pc-linux-gnu/bin/../lib/gcc/nios2-elf/5.3.0/../../../../../H-x86_64-pc-linux-gnu/nios2-elf/lib/libc.a(lib_a-mprec.o)
                0x0000000000007178                __pow5mult
 .text.__lshift
                0x00000000000072b8      0x148 /home/nathan/Documents/Misc/quartus-free/pkg/quartus-free/opt/altera/18.1/nios2eds/bin/gnu/H-x86_64-pc-linux-gnu/bin/../lib/gcc/nios2-elf/5.3.0/../../../../../H-x86_64-pc-linux-gnu/nios2-elf/lib/libc.a(lib_a-mprec.o)
                0x00000000000072b8                __lshift
 .text.__mcmp   0x0000000000007400       0x60 /home/nathan/Documents/Misc/quartus-free/pkg/quartus-free/opt/altera/18.1/nios2eds/bin/gnu/H-x86_64-pc-linux-gnu/bin/../lib/gcc/nios2-elf/5.3.0/../../../../../H-x86_64-pc-linux-gnu/nios2-elf/lib/libc.a(lib_a-mprec.o)
                0x0000000000007400                __mcmp
 .text.__mdiff  0x0000000000007460      0x1fc /home/nathan/Documents/Misc/quartus-free/pkg/quartus-free/opt/altera/18.1/nios2eds/bin/gnu/H-x86_64-pc-linux-gnu/bin/../lib/gcc/nios2-elf/5.3.0/../../../../../H-x86_64-pc-linux-gnu/nios2-elf/lib/libc.a(lib_a-mprec.o)
                0x0000000000007460                __mdiff
 .text.__ulp    0x000000000000765c       0x64 /home/nathan/Documents/Misc/quartus-free/pkg/quartus-free/opt/altera/18.1/nios2eds/bin/gnu/H-x86_64-pc-linux-gnu/bin/../lib/gcc/nios2-elf/5.3.0/../../../../../H-x86_64-pc-linux-gnu/nios2-elf/lib/libc.a(lib_a-mprec.o)
                0x000000000000765c                __ulp
 .text.__b2d    0x00000000000076c0      0x10c /home/nathan/Documents/Misc/quartus-free/pkg/quartus-free/opt/altera/18.1/nios2eds/bin/gnu/H-x86_64-pc-linux-gnu/bin/../lib/gcc/nios2-elf/5.3.0/../../../../../H-x86_64-pc-linux-gnu/nios2-elf/lib/libc.a(lib_a-mprec.o)
                0x00000000000076c0                __b2d
 .text.__d2b    0x00000000000077cc      0x14c /home/nathan/Documents/Misc/quartus-free/pkg/quartus-free/opt/altera/18.1/nios2eds/bin/gnu/H-x86_64-pc-linux-gnu/bin/../lib/gcc/nios2-elf/5.3.0/../../../../../H-x86_64-pc-linux-gnu/nios2-elf/lib/libc.a(lib_a-mprec.o)
                0x00000000000077cc                __d2b
 .text.__ratio  0x0000000000007918       0xa4 /home/nathan/Documents/Misc/quartus-free/pkg/quartus-free/opt/altera/18.1/nios2eds/bin/gnu/H-x86_64-pc-linux-gnu/bin/../lib/gcc/nios2-elf/5.3.0/../../../../../H-x86_64-pc-linux-gnu/nios2-elf/lib/libc.a(lib_a-mprec.o)
                0x0000000000007918                __ratio
 .text._mprec_log10
                0x00000000000079bc       0x74 /home/nathan/Documents/Misc/quartus-free/pkg/quartus-free/opt/altera/18.1/nios2eds/bin/gnu/H-x86_64-pc-linux-gnu/bin/../lib/gcc/nios2-elf/5.3.0/../../../../../H-x86_64-pc-linux-gnu/nios2-elf/lib/libc.a(lib_a-mprec.o)
                0x00000000000079bc                _mprec_log10
 .text.__copybits
                0x0000000000007a30       0x78 /home/nathan/Documents/Misc/quartus-free/pkg/quartus-free/opt/altera/18.1/nios2eds/bin/gnu/H-x86_64-pc-linux-gnu/bin/../lib/gcc/nios2-elf/5.3.0/../../../../../H-x86_64-pc-linux-gnu/nios2-elf/lib/libc.a(lib_a-mprec.o)
                0x0000000000007a30                __copybits
 .text.__any_on
                0x0000000000007aa8       0x8c /home/nathan/Documents/Misc/quartus-free/pkg/quartus-free/opt/altera/18.1/nios2eds/bin/gnu/H-x86_64-pc-linux-gnu/bin/../lib/gcc/nios2-elf/5.3.0/../../../../../H-x86_64-pc-linux-gnu/nios2-elf/lib/libc.a(lib_a-mprec.o)
                0x0000000000007aa8                __any_on
 .text          0x0000000000007b34        0x0 /home/nathan/Documents/Misc/quartus-free/pkg/quartus-free/opt/altera/18.1/nios2eds/bin/gnu/H-x86_64-pc-linux-gnu/bin/../lib/gcc/nios2-elf/5.3.0/../../../../../H-x86_64-pc-linux-gnu/nios2-elf/lib/libc.a(lib_a-reallocr.o)
 .text._realloc_r
                0x0000000000007b34      0x564 /home/nathan/Documents/Misc/quartus-free/pkg/quartus-free/opt/altera/18.1/nios2eds/bin/gnu/H-x86_64-pc-linux-gnu/bin/../lib/gcc/nios2-elf/5.3.0/../../../../../H-x86_64-pc-linux-gnu/nios2-elf/lib/libc.a(lib_a-reallocr.o)
                0x0000000000007b34                _realloc_r
 .text          0x0000000000008098        0x0 /home/nathan/Documents/Misc/quartus-free/pkg/quartus-free/opt/altera/18.1/nios2eds/bin/gnu/H-x86_64-pc-linux-gnu/bin/../lib/gcc/nios2-elf/5.3.0/../../../../../H-x86_64-pc-linux-gnu/nios2-elf/lib/libc.a(lib_a-s_fpclassify.o)
 .text.__fpclassifyd
                0x0000000000008098       0x74 /home/nathan/Documents/Misc/quartus-free/pkg/quartus-free/opt/altera/18.1/nios2eds/bin/gnu/H-x86_64-pc-linux-gnu/bin/../lib/gcc/nios2-elf/5.3.0/../../../../../H-x86_64-pc-linux-gnu/nios2-elf/lib/libc.a(lib_a-s_fpclassify.o)
                0x0000000000008098                __fpclassifyd
 .text          0x000000000000810c        0x0 /home/nathan/Documents/Misc/quartus-free/pkg/quartus-free/opt/altera/18.1/nios2eds/bin/gnu/H-x86_64-pc-linux-gnu/bin/../lib/gcc/nios2-elf/5.3.0/../../../../../H-x86_64-pc-linux-gnu/nios2-elf/lib/libc.a(lib_a-stdio.o)
 .text.__sread  0x000000000000810c       0x54 /home/nathan/Documents/Misc/quartus-free/pkg/quartus-free/opt/altera/18.1/nios2eds/bin/gnu/H-x86_64-pc-linux-gnu/bin/../lib/gcc/nios2-elf/5.3.0/../../../../../H-x86_64-pc-linux-gnu/nios2-elf/lib/libc.a(lib_a-stdio.o)
                0x000000000000810c                __sread
 .text.__seofread
                0x0000000000008160        0x8 /home/nathan/Documents/Misc/quartus-free/pkg/quartus-free/opt/altera/18.1/nios2eds/bin/gnu/H-x86_64-pc-linux-gnu/bin/../lib/gcc/nios2-elf/5.3.0/../../../../../H-x86_64-pc-linux-gnu/nios2-elf/lib/libc.a(lib_a-stdio.o)
                0x0000000000008160                __seofread
 .text.__swrite
                0x0000000000008168       0x7c /home/nathan/Documents/Misc/quartus-free/pkg/quartus-free/opt/altera/18.1/nios2eds/bin/gnu/H-x86_64-pc-linux-gnu/bin/../lib/gcc/nios2-elf/5.3.0/../../../../../H-x86_64-pc-linux-gnu/nios2-elf/lib/libc.a(lib_a-stdio.o)
                0x0000000000008168                __swrite
 .text.__sseek  0x00000000000081e4       0x5c /home/nathan/Documents/Misc/quartus-free/pkg/quartus-free/opt/altera/18.1/nios2eds/bin/gnu/H-x86_64-pc-linux-gnu/bin/../lib/gcc/nios2-elf/5.3.0/../../../../../H-x86_64-pc-linux-gnu/nios2-elf/lib/libc.a(lib_a-stdio.o)
                0x00000000000081e4                __sseek
 .text.__sclose
                0x0000000000008240        0x8 /home/nathan/Documents/Misc/quartus-free/pkg/quartus-free/opt/altera/18.1/nios2eds/bin/gnu/H-x86_64-pc-linux-gnu/bin/../lib/gcc/nios2-elf/5.3.0/../../../../../H-x86_64-pc-linux-gnu/nios2-elf/lib/libc.a(lib_a-stdio.o)
                0x0000000000008240                __sclose
 .text          0x0000000000008248        0x0 /home/nathan/Documents/Misc/quartus-free/pkg/quartus-free/opt/altera/18.1/nios2eds/bin/gnu/H-x86_64-pc-linux-gnu/bin/../lib/gcc/nios2-elf/5.3.0/../../../../../H-x86_64-pc-linux-gnu/nios2-elf/lib/libc.a(lib_a-strcmp.o)
 .text.strcmp   0x0000000000008248       0xdc /home/nathan/Documents/Misc/quartus-free/pkg/quartus-free/opt/altera/18.1/nios2eds/bin/gnu/H-x86_64-pc-linux-gnu/bin/../lib/gcc/nios2-elf/5.3.0/../../../../../H-x86_64-pc-linux-gnu/nios2-elf/lib/libc.a(lib_a-strcmp.o)
                0x0000000000008248                strcmp
 .text          0x0000000000008324        0x0 /home/nathan/Documents/Misc/quartus-free/pkg/quartus-free/opt/altera/18.1/nios2eds/bin/gnu/H-x86_64-pc-linux-gnu/bin/../lib/gcc/nios2-elf/5.3.0/../../../../../H-x86_64-pc-linux-gnu/nios2-elf/lib/libc.a(lib_a-vfiprintf.o)
 .text.__sprint_r.part.0
                0x0000000000008324       0xfc /home/nathan/Documents/Misc/quartus-free/pkg/quartus-free/opt/altera/18.1/nios2eds/bin/gnu/H-x86_64-pc-linux-gnu/bin/../lib/gcc/nios2-elf/5.3.0/../../../../../H-x86_64-pc-linux-gnu/nios2-elf/lib/libc.a(lib_a-vfiprintf.o)
 .text.__sprint_r
                0x0000000000008420       0x18 /home/nathan/Documents/Misc/quartus-free/pkg/quartus-free/opt/altera/18.1/nios2eds/bin/gnu/H-x86_64-pc-linux-gnu/bin/../lib/gcc/nios2-elf/5.3.0/../../../../../H-x86_64-pc-linux-gnu/nios2-elf/lib/libc.a(lib_a-vfiprintf.o)
                0x0000000000008420                __sprint_r
 .text.___vfiprintf_internal_r
                0x0000000000008438     0x145c /home/nathan/Documents/Misc/quartus-free/pkg/quartus-free/opt/altera/18.1/nios2eds/bin/gnu/H-x86_64-pc-linux-gnu/bin/../lib/gcc/nios2-elf/5.3.0/../../../../../H-x86_64-pc-linux-gnu/nios2-elf/lib/libc.a(lib_a-vfiprintf.o)
                0x0000000000008438                ___vfiprintf_internal_r
 .text.__vfiprintf_internal
                0x0000000000009894       0x1c /home/nathan/Documents/Misc/quartus-free/pkg/quartus-free/opt/altera/18.1/nios2eds/bin/gnu/H-x86_64-pc-linux-gnu/bin/../lib/gcc/nios2-elf/5.3.0/../../../../../H-x86_64-pc-linux-gnu/nios2-elf/lib/libc.a(lib_a-vfiprintf.o)
                0x0000000000009894                __vfiprintf_internal
 .text.__sbprintf
                0x00000000000098b0       0xbc /home/nathan/Documents/Misc/quartus-free/pkg/quartus-free/opt/altera/18.1/nios2eds/bin/gnu/H-x86_64-pc-linux-gnu/bin/../lib/gcc/nios2-elf/5.3.0/../../../../../H-x86_64-pc-linux-gnu/nios2-elf/lib/libc.a(lib_a-vfiprintf.o)
 .text          0x000000000000996c        0x0 /home/nathan/Documents/Misc/quartus-free/pkg/quartus-free/opt/altera/18.1/nios2eds/bin/gnu/H-x86_64-pc-linux-gnu/bin/../lib/gcc/nios2-elf/5.3.0/../../../../../H-x86_64-pc-linux-gnu/nios2-elf/lib/libc.a(lib_a-writer.o)
 .text._write_r
                0x000000000000996c       0x60 /home/nathan/Documents/Misc/quartus-free/pkg/quartus-free/opt/altera/18.1/nios2eds/bin/gnu/H-x86_64-pc-linux-gnu/bin/../lib/gcc/nios2-elf/5.3.0/../../../../../H-x86_64-pc-linux-gnu/nios2-elf/lib/libc.a(lib_a-writer.o)
                0x000000000000996c                _write_r
 .text          0x00000000000099cc        0x0 /home/nathan/Documents/Misc/quartus-free/pkg/quartus-free/opt/altera/18.1/nios2eds/bin/gnu/H-x86_64-pc-linux-gnu/bin/../lib/gcc/nios2-elf/5.3.0/../../../../../H-x86_64-pc-linux-gnu/nios2-elf/lib/libc.a(closer.o)
 .text._close_r
                0x00000000000099cc       0x54 /home/nathan/Documents/Misc/quartus-free/pkg/quartus-free/opt/altera/18.1/nios2eds/bin/gnu/H-x86_64-pc-linux-gnu/bin/../lib/gcc/nios2-elf/5.3.0/../../../../../H-x86_64-pc-linux-gnu/nios2-elf/lib/libc.a(closer.o)
                0x00000000000099cc                _close_r
 .text          0x0000000000009a20        0x0 /home/nathan/Documents/Misc/quartus-free/pkg/quartus-free/opt/altera/18.1/nios2eds/bin/gnu/H-x86_64-pc-linux-gnu/bin/../lib/gcc/nios2-elf/5.3.0/../../../../../H-x86_64-pc-linux-gnu/nios2-elf/lib/libc.a(lib_a-callocr.o)
 .text._calloc_r
                0x0000000000009a20       0xc4 /home/nathan/Documents/Misc/quartus-free/pkg/quartus-free/opt/altera/18.1/nios2eds/bin/gnu/H-x86_64-pc-linux-gnu/bin/../lib/gcc/nios2-elf/5.3.0/../../../../../H-x86_64-pc-linux-gnu/nios2-elf/lib/libc.a(lib_a-callocr.o)
                0x0000000000009a20                _calloc_r
 .text          0x0000000000009ae4        0x0 /home/nathan/Documents/Misc/quartus-free/pkg/quartus-free/opt/altera/18.1/nios2eds/bin/gnu/H-x86_64-pc-linux-gnu/bin/../lib/gcc/nios2-elf/5.3.0/../../../../../H-x86_64-pc-linux-gnu/nios2-elf/lib/libc.a(lib_a-fclose.o)
 .text._fclose_r
                0x0000000000009ae4       0xf0 /home/nathan/Documents/Misc/quartus-free/pkg/quartus-free/opt/altera/18.1/nios2eds/bin/gnu/H-x86_64-pc-linux-gnu/bin/../lib/gcc/nios2-elf/5.3.0/../../../../../H-x86_64-pc-linux-gnu/nios2-elf/lib/libc.a(lib_a-fclose.o)
                0x0000000000009ae4                _fclose_r
 .text.fclose   0x0000000000009bd4       0x14 /home/nathan/Documents/Misc/quartus-free/pkg/quartus-free/opt/altera/18.1/nios2eds/bin/gnu/H-x86_64-pc-linux-gnu/bin/../lib/gcc/nios2-elf/5.3.0/../../../../../H-x86_64-pc-linux-gnu/nios2-elf/lib/libc.a(lib_a-fclose.o)
                0x0000000000009bd4                fclose
 .text          0x0000000000009be8        0x0 /home/nathan/Documents/Misc/quartus-free/pkg/quartus-free/opt/altera/18.1/nios2eds/bin/gnu/H-x86_64-pc-linux-gnu/bin/../lib/gcc/nios2-elf/5.3.0/../../../../../H-x86_64-pc-linux-gnu/nios2-elf/lib/libc.a(lib_a-fputwc.o)
 .text.__fputwc
                0x0000000000009be8      0x164 /home/nathan/Documents/Misc/quartus-free/pkg/quartus-free/opt/altera/18.1/nios2eds/bin/gnu/H-x86_64-pc-linux-gnu/bin/../lib/gcc/nios2-elf/5.3.0/../../../../../H-x86_64-pc-linux-gnu/nios2-elf/lib/libc.a(lib_a-fputwc.o)
                0x0000000000009be8                __fputwc
 .text._fputwc_r
                0x0000000000009d4c       0x24 /home/nathan/Documents/Misc/quartus-free/pkg/quartus-free/opt/altera/18.1/nios2eds/bin/gnu/H-x86_64-pc-linux-gnu/bin/../lib/gcc/nios2-elf/5.3.0/../../../../../H-x86_64-pc-linux-gnu/nios2-elf/lib/libc.a(lib_a-fputwc.o)
                0x0000000000009d4c                _fputwc_r
 .text.fputwc   0x0000000000009d70       0x80 /home/nathan/Documents/Misc/quartus-free/pkg/quartus-free/opt/altera/18.1/nios2eds/bin/gnu/H-x86_64-pc-linux-gnu/bin/../lib/gcc/nios2-elf/5.3.0/../../../../../H-x86_64-pc-linux-gnu/nios2-elf/lib/libc.a(lib_a-fputwc.o)
                0x0000000000009d70                fputwc
 .text          0x0000000000009df0        0x0 /home/nathan/Documents/Misc/quartus-free/pkg/quartus-free/opt/altera/18.1/nios2eds/bin/gnu/H-x86_64-pc-linux-gnu/bin/../lib/gcc/nios2-elf/5.3.0/../../../../../H-x86_64-pc-linux-gnu/nios2-elf/lib/libc.a(lib_a-fstatr.o)
 .text._fstat_r
                0x0000000000009df0       0x5c /home/nathan/Documents/Misc/quartus-free/pkg/quartus-free/opt/altera/18.1/nios2eds/bin/gnu/H-x86_64-pc-linux-gnu/bin/../lib/gcc/nios2-elf/5.3.0/../../../../../H-x86_64-pc-linux-gnu/nios2-elf/lib/libc.a(lib_a-fstatr.o)
                0x0000000000009df0                _fstat_r
 .text          0x0000000000009e4c        0x0 /home/nathan/Documents/Misc/quartus-free/pkg/quartus-free/opt/altera/18.1/nios2eds/bin/gnu/H-x86_64-pc-linux-gnu/bin/../lib/gcc/nios2-elf/5.3.0/../../../../../H-x86_64-pc-linux-gnu/nios2-elf/lib/libc.a(lib_a-isattyr.o)
 .text._isatty_r
                0x0000000000009e4c       0x54 /home/nathan/Documents/Misc/quartus-free/pkg/quartus-free/opt/altera/18.1/nios2eds/bin/gnu/H-x86_64-pc-linux-gnu/bin/../lib/gcc/nios2-elf/5.3.0/../../../../../H-x86_64-pc-linux-gnu/nios2-elf/lib/libc.a(lib_a-isattyr.o)
                0x0000000000009e4c                _isatty_r
 .text          0x0000000000009ea0        0x0 /home/nathan/Documents/Misc/quartus-free/pkg/quartus-free/opt/altera/18.1/nios2eds/bin/gnu/H-x86_64-pc-linux-gnu/bin/../lib/gcc/nios2-elf/5.3.0/../../../../../H-x86_64-pc-linux-gnu/nios2-elf/lib/libc.a(lib_a-lseekr.o)
 .text._lseek_r
                0x0000000000009ea0       0x60 /home/nathan/Documents/Misc/quartus-free/pkg/quartus-free/opt/altera/18.1/nios2eds/bin/gnu/H-x86_64-pc-linux-gnu/bin/../lib/gcc/nios2-elf/5.3.0/../../../../../H-x86_64-pc-linux-gnu/nios2-elf/lib/libc.a(lib_a-lseekr.o)
                0x0000000000009ea0                _lseek_r
 .text          0x0000000000009f00        0x0 /home/nathan/Documents/Misc/quartus-free/pkg/quartus-free/opt/altera/18.1/nios2eds/bin/gnu/H-x86_64-pc-linux-gnu/bin/../lib/gcc/nios2-elf/5.3.0/../../../../../H-x86_64-pc-linux-gnu/nios2-elf/lib/libc.a(lib_a-readr.o)
 .text._read_r  0x0000000000009f00       0x60 /home/nathan/Documents/Misc/quartus-free/pkg/quartus-free/opt/altera/18.1/nios2eds/bin/gnu/H-x86_64-pc-linux-gnu/bin/../lib/gcc/nios2-elf/5.3.0/../../../../../H-x86_64-pc-linux-gnu/nios2-elf/lib/libc.a(lib_a-readr.o)
                0x0000000000009f00                _read_r
 .text          0x0000000000009f60        0x0 /home/nathan/Documents/Misc/quartus-free/pkg/quartus-free/opt/altera/18.1/nios2eds/bin/gnu/H-x86_64-pc-linux-gnu/bin/../lib/gcc/nios2-elf/5.3.0/../../../../../H-x86_64-pc-linux-gnu/nios2-elf/lib/libc.a(lib_a-wbuf.o)
 .text.__swbuf_r
                0x0000000000009f60      0x140 /home/nathan/Documents/Misc/quartus-free/pkg/quartus-free/opt/altera/18.1/nios2eds/bin/gnu/H-x86_64-pc-linux-gnu/bin/../lib/gcc/nios2-elf/5.3.0/../../../../../H-x86_64-pc-linux-gnu/nios2-elf/lib/libc.a(lib_a-wbuf.o)
                0x0000000000009f60                __swbuf_r
 .text.__swbuf  0x000000000000a0a0       0x18 /home/nathan/Documents/Misc/quartus-free/pkg/quartus-free/opt/altera/18.1/nios2eds/bin/gnu/H-x86_64-pc-linux-gnu/bin/../lib/gcc/nios2-elf/5.3.0/../../../../../H-x86_64-pc-linux-gnu/nios2-elf/lib/libc.a(lib_a-wbuf.o)
                0x000000000000a0a0                __swbuf
 .text          0x000000000000a0b8        0x0 /home/nathan/Documents/Misc/quartus-free/pkg/quartus-free/opt/altera/18.1/nios2eds/bin/gnu/H-x86_64-pc-linux-gnu/bin/../lib/gcc/nios2-elf/5.3.0/../../../../../H-x86_64-pc-linux-gnu/nios2-elf/lib/libc.a(lib_a-wcrtomb.o)
 .text._wcrtomb_r
                0x000000000000a0b8       0x9c /home/nathan/Documents/Misc/quartus-free/pkg/quartus-free/opt/altera/18.1/nios2eds/bin/gnu/H-x86_64-pc-linux-gnu/bin/../lib/gcc/nios2-elf/5.3.0/../../../../../H-x86_64-pc-linux-gnu/nios2-elf/lib/libc.a(lib_a-wcrtomb.o)
                0x000000000000a0b8                _wcrtomb_r
 .text.wcrtomb  0x000000000000a154       0xc0 /home/nathan/Documents/Misc/quartus-free/pkg/quartus-free/opt/altera/18.1/nios2eds/bin/gnu/H-x86_64-pc-linux-gnu/bin/../lib/gcc/nios2-elf/5.3.0/../../../../../H-x86_64-pc-linux-gnu/nios2-elf/lib/libc.a(lib_a-wcrtomb.o)
                0x000000000000a154                wcrtomb
 .text          0x000000000000a214        0x0 /home/nathan/Documents/Misc/quartus-free/pkg/quartus-free/opt/altera/18.1/nios2eds/bin/gnu/H-x86_64-pc-linux-gnu/bin/../lib/gcc/nios2-elf/5.3.0/../../../../../H-x86_64-pc-linux-gnu/nios2-elf/lib/libc.a(lib_a-wctomb_r.o)
 .text.__ascii_wctomb
                0x000000000000a214       0x30 /home/nathan/Documents/Misc/quartus-free/pkg/quartus-free/opt/altera/18.1/nios2eds/bin/gnu/H-x86_64-pc-linux-gnu/bin/../lib/gcc/nios2-elf/5.3.0/../../../../../H-x86_64-pc-linux-gnu/nios2-elf/lib/libc.a(lib_a-wctomb_r.o)
                0x000000000000a214                __ascii_wctomb
 .text._wctomb_r
                0x000000000000a244       0x5c /home/nathan/Documents/Misc/quartus-free/pkg/quartus-free/opt/altera/18.1/nios2eds/bin/gnu/H-x86_64-pc-linux-gnu/bin/../lib/gcc/nios2-elf/5.3.0/../../../../../H-x86_64-pc-linux-gnu/nios2-elf/lib/libc.a(lib_a-wctomb_r.o)
                0x000000000000a244                _wctomb_r
 .text          0x000000000000a2a0      0x578 /home/nathan/Documents/Misc/quartus-free/pkg/quartus-free/opt/altera/18.1/nios2eds/bin/gnu/H-x86_64-pc-linux-gnu/bin/../lib/gcc/nios2-elf/5.3.0/libgcc.a(_udivdi3.o)
                0x000000000000a2a0                __udivdi3
 .text          0x000000000000a818      0x538 /home/nathan/Documents/Misc/quartus-free/pkg/quartus-free/opt/altera/18.1/nios2eds/bin/gnu/H-x86_64-pc-linux-gnu/bin/../lib/gcc/nios2-elf/5.3.0/libgcc.a(_umoddi3.o)
                0x000000000000a818                __umoddi3
 .text          0x000000000000ad50      0x8ac /home/nathan/Documents/Misc/quartus-free/pkg/quartus-free/opt/altera/18.1/nios2eds/bin/gnu/H-x86_64-pc-linux-gnu/bin/../lib/gcc/nios2-elf/5.3.0/libgcc.a(adddf3.o)
                0x000000000000ad50                __adddf3
 .text          0x000000000000b5fc      0x8e8 /home/nathan/Documents/Misc/quartus-free/pkg/quartus-free/opt/altera/18.1/nios2eds/bin/gnu/H-x86_64-pc-linux-gnu/bin/../lib/gcc/nios2-elf/5.3.0/libgcc.a(divdf3.o)
                0x000000000000b5fc                __divdf3
 .text          0x000000000000bee4       0x88 /home/nathan/Documents/Misc/quartus-free/pkg/quartus-free/opt/altera/18.1/nios2eds/bin/gnu/H-x86_64-pc-linux-gnu/bin/../lib/gcc/nios2-elf/5.3.0/libgcc.a(eqdf2.o)
                0x000000000000bee4                __eqdf2
                0x000000000000bee4                __nedf2
 .text          0x000000000000bf6c       0xdc /home/nathan/Documents/Misc/quartus-free/pkg/quartus-free/opt/altera/18.1/nios2eds/bin/gnu/H-x86_64-pc-linux-gnu/bin/../lib/gcc/nios2-elf/5.3.0/libgcc.a(gedf2.o)
                0x000000000000bf6c                __gtdf2
                0x000000000000bf6c                __gedf2
 .text          0x000000000000c048       0xf4 /home/nathan/Documents/Misc/quartus-free/pkg/quartus-free/opt/altera/18.1/nios2eds/bin/gnu/H-x86_64-pc-linux-gnu/bin/../lib/gcc/nios2-elf/5.3.0/libgcc.a(ledf2.o)
                0x000000000000c048                __ltdf2
                0x000000000000c048                __ledf2
 .text          0x000000000000c13c      0x718 /home/nathan/Documents/Misc/quartus-free/pkg/quartus-free/opt/altera/18.1/nios2eds/bin/gnu/H-x86_64-pc-linux-gnu/bin/../lib/gcc/nios2-elf/5.3.0/libgcc.a(muldf3.o)
                0x000000000000c13c                __muldf3
 .text          0x000000000000c854      0x8fc /home/nathan/Documents/Misc/quartus-free/pkg/quartus-free/opt/altera/18.1/nios2eds/bin/gnu/H-x86_64-pc-linux-gnu/bin/../lib/gcc/nios2-elf/5.3.0/libgcc.a(subdf3.o)
                0x000000000000c854                __subdf3
 .text          0x000000000000d150       0x80 /home/nathan/Documents/Misc/quartus-free/pkg/quartus-free/opt/altera/18.1/nios2eds/bin/gnu/H-x86_64-pc-linux-gnu/bin/../lib/gcc/nios2-elf/5.3.0/libgcc.a(fixdfsi.o)
                0x000000000000d150                __fixdfsi
 .text          0x000000000000d1d0       0xdc /home/nathan/Documents/Misc/quartus-free/pkg/quartus-free/opt/altera/18.1/nios2eds/bin/gnu/H-x86_64-pc-linux-gnu/bin/../lib/gcc/nios2-elf/5.3.0/libgcc.a(floatsidf.o)
                0x000000000000d1d0                __floatsidf
 .text          0x000000000000d2ac       0xa8 /home/nathan/Documents/Misc/quartus-free/pkg/quartus-free/opt/altera/18.1/nios2eds/bin/gnu/H-x86_64-pc-linux-gnu/bin/../lib/gcc/nios2-elf/5.3.0/libgcc.a(floatunsidf.o)
                0x000000000000d2ac                __floatunsidf
 .text          0x000000000000d354        0x0 /home/nathan/Documents/Misc/quartus-free/pkg/quartus-free/opt/altera/18.1/nios2eds/bin/gnu/H-x86_64-pc-linux-gnu/bin/../lib/gcc/nios2-elf/5.3.0/libgcc.a(_clz.o)
 .text          0x000000000000d354       0x64 /home/nathan/Documents/Misc/quartus-free/pkg/quartus-free/opt/altera/18.1/nios2eds/bin/gnu/H-x86_64-pc-linux-gnu/bin/../lib/gcc/nios2-elf/5.3.0/libgcc.a(_clzsi2.o)
                0x000000000000d354                __clzsi2
 .text          0x000000000000d3b8      0x10c /home/nathan/Documents/Cours/EPFL_RTES_CS476/Code/mini_project_v2/sw/mini_project_v3_bsp//libucosii_bsp.a(alt_close.o)
                0x000000000000d3f4                close
 .text          0x000000000000d4c4       0x2c /home/nathan/Documents/Cours/EPFL_RTES_CS476/Code/mini_project_v2/sw/mini_project_v3_bsp//libucosii_bsp.a(alt_dev.o)
 .text          0x000000000000d4f0        0x0 /home/nathan/Documents/Cours/EPFL_RTES_CS476/Code/mini_project_v2/sw/mini_project_v3_bsp//libucosii_bsp.a(alt_errno.o)
 .text          0x000000000000d4f0       0xec /home/nathan/Documents/Cours/EPFL_RTES_CS476/Code/mini_project_v2/sw/mini_project_v3_bsp//libucosii_bsp.a(alt_fstat.o)
                0x000000000000d52c                fstat
 .text          0x000000000000d5dc       0xe0 /home/nathan/Documents/Cours/EPFL_RTES_CS476/Code/mini_project_v2/sw/mini_project_v3_bsp//libucosii_bsp.a(alt_isatty.o)
                0x000000000000d618                isatty
 .text          0x000000000000d6bc       0xec /home/nathan/Documents/Cours/EPFL_RTES_CS476/Code/mini_project_v2/sw/mini_project_v3_bsp//libucosii_bsp.a(alt_load.o)
                0x000000000000d724                alt_load
 .text          0x000000000000d7a8      0x110 /home/nathan/Documents/Cours/EPFL_RTES_CS476/Code/mini_project_v2/sw/mini_project_v3_bsp//libucosii_bsp.a(alt_lseek.o)
                0x000000000000d7e4                lseek
 .text          0x000000000000d8b8       0xbc /home/nathan/Documents/Cours/EPFL_RTES_CS476/Code/mini_project_v2/sw/mini_project_v3_bsp//libucosii_bsp.a(alt_main.o)
                0x000000000000d8b8                alt_main
 .text          0x000000000000d974      0x138 /home/nathan/Documents/Cours/EPFL_RTES_CS476/Code/mini_project_v2/sw/mini_project_v3_bsp//libucosii_bsp.a(alt_read.o)
                0x000000000000d9b0                read
 .text          0x000000000000daac       0x64 /home/nathan/Documents/Cours/EPFL_RTES_CS476/Code/mini_project_v2/sw/mini_project_v3_bsp//libucosii_bsp.a(alt_release_fd.o)
                0x000000000000daac                alt_release_fd
 .text          0x000000000000db10       0xb0 /home/nathan/Documents/Cours/EPFL_RTES_CS476/Code/mini_project_v2/sw/mini_project_v3_bsp//libucosii_bsp.a(alt_sbrk.o)
                0x000000000000db10                sbrk
 .text          0x000000000000dbc0      0x134 /home/nathan/Documents/Cours/EPFL_RTES_CS476/Code/mini_project_v2/sw/mini_project_v3_bsp//libucosii_bsp.a(alt_write.o)
                0x000000000000dbfc                write
 .text          0x000000000000dcf4      0x124 /home/nathan/Documents/Cours/EPFL_RTES_CS476/Code/mini_project_v2/sw/mini_project_v3_bsp//libucosii_bsp.a(alt_env_lock.o)
                0x000000000000dcf4                __env_lock
                0x000000000000ddb8                __env_unlock
 .text          0x000000000000de18      0x1ec /home/nathan/Documents/Cours/EPFL_RTES_CS476/Code/mini_project_v2/sw/mini_project_v3_bsp//libucosii_bsp.a(alt_malloc_lock.o)
                0x000000000000de18                __malloc_lock
                0x000000000000df38                __malloc_unlock
 .text          0x000000000000e004     0x2014 /home/nathan/Documents/Cours/EPFL_RTES_CS476/Code/mini_project_v2/sw/mini_project_v3_bsp//libucosii_bsp.a(os_core.o)
                0x000000000000e004                OSEventNameGet
                0x000000000000e124                OSEventNameSet
                0x000000000000e264                OSEventPendMulti
                0x000000000000e874                OSInit
                0x000000000000e8cc                OSIntEnter
                0x000000000000e918                OSIntExit
                0x000000000000ea10                OSSchedLock
                0x000000000000ea9c                OSSchedUnlock
                0x000000000000eb78                OSStart
                0x000000000000ebe8                OSStatInit
                0x000000000000ec98                OSTimeTick
                0x000000000000eeb8                OSVersion
                0x000000000000eed8                OS_Dummy
                0x000000000000eef8                OS_EventTaskRdy
                0x000000000000f090                OS_EventTaskWait
                0x000000000000f1a0                OS_EventTaskWaitMulti
                0x000000000000f2f0                OS_EventTaskRemove
                0x000000000000f3a8                OS_EventTaskRemoveMulti
                0x000000000000f4a8                OS_EventWaitListInit
                0x000000000000f888                OS_MemClr
                0x000000000000f8dc                OS_MemCopy
                0x000000000000f944                OS_Sched
                0x000000000000fa88                OS_StrCopy
                0x000000000000fafc                OS_StrLen
                0x000000000000fb50                OS_TaskIdle
                0x000000000000fbac                OS_TaskStat
                0x000000000000fc78                OS_TaskStatStkChk
                0x000000000000fd44                OS_TCBInit
 .text          0x0000000000010018      0x190 /home/nathan/Documents/Cours/EPFL_RTES_CS476/Code/mini_project_v2/sw/mini_project_v3_bsp//libucosii_bsp.a(os_dbg.o)
                0x0000000000010018                OSDebugInit
 .text          0x00000000000101a8     0x1714 /home/nathan/Documents/Cours/EPFL_RTES_CS476/Code/mini_project_v2/sw/mini_project_v3_bsp//libucosii_bsp.a(os_flag.o)
                0x00000000000101a8                OSFlagAccept
                0x00000000000104b0                OSFlagCreate
                0x00000000000105b8                OSFlagDel
                0x0000000000010800                OSFlagNameGet
                0x0000000000010928                OSFlagNameSet
                0x0000000000010a74                OSFlagPend
                0x000000000001102c                OSFlagPendGetFlagsRdy
                0x000000000001108c                OSFlagPost
                0x0000000000011420                OSFlagQuery
                0x0000000000011644                OS_FlagInit
                0x0000000000011818                OS_FlagUnlink
 .text          0x00000000000118bc      0x754 /home/nathan/Documents/Cours/EPFL_RTES_CS476/Code/mini_project_v2/sw/mini_project_v3_bsp//libucosii_bsp.a(os_mem.o)
                0x00000000000118bc                OSMemCreate
                0x0000000000011a90                OSMemGet
                0x0000000000011b80                OSMemNameGet
                0x0000000000011c70                OSMemNameSet
                0x0000000000011d84                OSMemPut
                0x0000000000011e5c                OSMemQuery
                0x0000000000011f44                OS_MemInit
 .text          0x0000000000012010     0x1104 /home/nathan/Documents/Cours/EPFL_RTES_CS476/Code/mini_project_v2/sw/mini_project_v3_bsp//libucosii_bsp.a(os_q.o)
                0x0000000000012010                OSQAccept
                0x0000000000012150                OSQCreate
                0x00000000000122fc                OSQDel
                0x000000000001257c                OSQFlush
                0x0000000000012634                OSQPend
                0x00000000000128c0                OSQPendAbort
                0x0000000000012a2c                OSQPost
                0x0000000000012b94                OSQPostFront
                0x0000000000012d04                OSQPostOpt
                0x0000000000012f10                OSQQuery
                0x000000000001306c                OS_QInit
 .text          0x0000000000013114      0xa60 /home/nathan/Documents/Cours/EPFL_RTES_CS476/Code/mini_project_v2/sw/mini_project_v3_bsp//libucosii_bsp.a(os_sem.o)
                0x0000000000013114                OSSemAccept
                0x00000000000131c4                OSSemCreate
                0x000000000001329c                OSSemDel
                0x00000000000134dc                OSSemPend
                0x00000000000136e8                OSSemPendAbort
                0x0000000000013854                OSSemPost
                0x0000000000013964                OSSemQuery
                0x0000000000013a74                OSSemSet
 .text          0x0000000000013b74     0x176c /home/nathan/Documents/Cours/EPFL_RTES_CS476/Code/mini_project_v2/sw/mini_project_v3_bsp//libucosii_bsp.a(os_task.o)
                0x0000000000013b74                OSTaskChangePrio
                0x0000000000014064                OSTaskCreate
                0x0000000000014210                OSTaskCreateExt
                0x00000000000143f4                OSTaskDel
                0x0000000000014738                OSTaskDelReq
                0x0000000000014888                OSTaskNameGet
                0x0000000000014a20                OSTaskNameSet
                0x0000000000014bd4                OSTaskResume
                0x0000000000014da8                OSTaskStkChk
                0x0000000000014f68                OSTaskSuspend
                0x000000000001514c                OSTaskQuery
                0x0000000000015270                OS_TaskStkClr
 .text          0x00000000000152e0      0x4e8 /home/nathan/Documents/Cours/EPFL_RTES_CS476/Code/mini_project_v2/sw/mini_project_v3_bsp//libucosii_bsp.a(os_time.o)
                0x00000000000152e0                OSTimeDly
                0x00000000000153e4                OSTimeDlyHMSM
                0x0000000000015538                OSTimeDlyResume
                0x000000000001570c                OSTimeGet
                0x0000000000015768                OSTimeSet
 .text          0x00000000000157c8       0xe0 /home/nathan/Documents/Cours/EPFL_RTES_CS476/Code/mini_project_v2/sw/mini_project_v3_bsp//libucosii_bsp.a(alt_sys_init.o)
                0x00000000000157fc                alt_irq_init
                0x0000000000015834                alt_sys_init
 .text          0x00000000000158a8      0x164 /home/nathan/Documents/Cours/EPFL_RTES_CS476/Code/mini_project_v2/sw/mini_project_v3_bsp//libucosii_bsp.a(altera_avalon_jtag_uart_fd.o)
                0x00000000000158a8                altera_avalon_jtag_uart_read_fd
                0x0000000000015908                altera_avalon_jtag_uart_write_fd
                0x0000000000015968                altera_avalon_jtag_uart_close_fd
                0x00000000000159b8                altera_avalon_jtag_uart_ioctl_fd
 .text          0x0000000000015a0c      0x558 /home/nathan/Documents/Cours/EPFL_RTES_CS476/Code/mini_project_v2/sw/mini_project_v3_bsp//libucosii_bsp.a(altera_avalon_jtag_uart_init.o)
                0x0000000000015a0c                altera_avalon_jtag_uart_init
                0x0000000000015efc                altera_avalon_jtag_uart_close
 .text          0x0000000000015f64       0xf0 /home/nathan/Documents/Cours/EPFL_RTES_CS476/Code/mini_project_v2/sw/mini_project_v3_bsp//libucosii_bsp.a(altera_avalon_jtag_uart_ioctl.o)
                0x0000000000015f64                altera_avalon_jtag_uart_ioctl
 .text          0x0000000000016054      0x2bc /home/nathan/Documents/Cours/EPFL_RTES_CS476/Code/mini_project_v2/sw/mini_project_v3_bsp//libucosii_bsp.a(altera_avalon_jtag_uart_read.o)
                0x0000000000016054                altera_avalon_jtag_uart_read
 .text          0x0000000000016310      0x2c4 /home/nathan/Documents/Cours/EPFL_RTES_CS476/Code/mini_project_v2/sw/mini_project_v3_bsp//libucosii_bsp.a(altera_avalon_jtag_uart_write.o)
                0x0000000000016310                altera_avalon_jtag_uart_write
 .text          0x00000000000165d4       0xf4 /home/nathan/Documents/Cours/EPFL_RTES_CS476/Code/mini_project_v2/sw/mini_project_v3_bsp//libucosii_bsp.a(altera_avalon_timer_sc.o)
                0x000000000001664c                alt_avalon_timer_sc_init
 .text          0x00000000000166c8      0x12c /home/nathan/Documents/Cours/EPFL_RTES_CS476/Code/mini_project_v2/sw/mini_project_v3_bsp//libucosii_bsp.a(alt_alarm_start.o)
                0x00000000000166c8                alt_alarm_start
 .text          0x00000000000167f4       0x20 /home/nathan/Documents/Cours/EPFL_RTES_CS476/Code/mini_project_v2/sw/mini_project_v3_bsp//libucosii_bsp.a(alt_dcache_flush_all.o)
                0x00000000000167f4                alt_dcache_flush_all
 .text          0x0000000000016814       0xe0 /home/nathan/Documents/Cours/EPFL_RTES_CS476/Code/mini_project_v2/sw/mini_project_v3_bsp//libucosii_bsp.a(alt_dev_llist_insert.o)
                0x0000000000016850                alt_dev_llist_insert
 .text          0x00000000000168f4       0x60 /home/nathan/Documents/Cours/EPFL_RTES_CS476/Code/mini_project_v2/sw/mini_project_v3_bsp//libucosii_bsp.a(alt_do_ctors.o)
                0x00000000000168f4                _do_ctors
 .text          0x0000000000016954       0x60 /home/nathan/Documents/Cours/EPFL_RTES_CS476/Code/mini_project_v2/sw/mini_project_v3_bsp//libucosii_bsp.a(alt_do_dtors.o)
                0x0000000000016954                _do_dtors
 .text          0x00000000000169b4       0x20 /home/nathan/Documents/Cours/EPFL_RTES_CS476/Code/mini_project_v2/sw/mini_project_v3_bsp//libucosii_bsp.a(alt_icache_flush_all.o)
                0x00000000000169b4                alt_icache_flush_all
 .text          0x00000000000169d4      0x1b0 /home/nathan/Documents/Cours/EPFL_RTES_CS476/Code/mini_project_v2/sw/mini_project_v3_bsp//libucosii_bsp.a(alt_iic.o)
                0x00000000000169d4                alt_ic_isr_register
                0x0000000000016a24                alt_ic_irq_enable
                0x0000000000016aac                alt_ic_irq_disable
                0x0000000000016b38                alt_ic_irq_enabled
 .text          0x0000000000016b84       0xf0 /home/nathan/Documents/Cours/EPFL_RTES_CS476/Code/mini_project_v2/sw/mini_project_v3_bsp//libucosii_bsp.a(alt_iic_isr_register.o)
                0x0000000000016b84                alt_iic_isr_register
 .text          0x0000000000016c74      0x140 /home/nathan/Documents/Cours/EPFL_RTES_CS476/Code/mini_project_v2/sw/mini_project_v3_bsp//libucosii_bsp.a(alt_io_redirect.o)
                0x0000000000016d38                alt_io_redirect
 .text          0x0000000000016db4        0x0 /home/nathan/Documents/Cours/EPFL_RTES_CS476/Code/mini_project_v2/sw/mini_project_v3_bsp//libucosii_bsp.a(alt_irq_entry.o)
 .text          0x0000000000016db4        0x0 /home/nathan/Documents/Cours/EPFL_RTES_CS476/Code/mini_project_v2/sw/mini_project_v3_bsp//libucosii_bsp.a(alt_irq_handler.o)
 .text          0x0000000000016db4        0x0 /home/nathan/Documents/Cours/EPFL_RTES_CS476/Code/mini_project_v2/sw/mini_project_v3_bsp//libucosii_bsp.a(alt_irq_vars.o)
 .text          0x0000000000016db4      0x254 /home/nathan/Documents/Cours/EPFL_RTES_CS476/Code/mini_project_v2/sw/mini_project_v3_bsp//libucosii_bsp.a(alt_open.o)
                0x0000000000016eb4                open
 .text          0x0000000000017008      0x1a4 /home/nathan/Documents/Cours/EPFL_RTES_CS476/Code/mini_project_v2/sw/mini_project_v3_bsp//libucosii_bsp.a(alt_tick.o)
                0x0000000000017008                alt_alarm_stop
                0x00000000000170a4                alt_tick
 .text          0x00000000000171ac       0x24 /home/nathan/Documents/Cours/EPFL_RTES_CS476/Code/mini_project_v2/sw/mini_project_v3_bsp//libucosii_bsp.a(altera_nios2_gen2_irq.o)
                0x00000000000171ac                altera_nios2_gen2_irq_init
 .text          0x00000000000171d0       0xd0 /home/nathan/Documents/Cours/EPFL_RTES_CS476/Code/mini_project_v2/sw/mini_project_v3_bsp//libucosii_bsp.a(os_cpu_a.o)
                0x00000000000171d0                OSCtxSw
                0x00000000000171d0                OSIntCtxSw
                0x000000000001725c                OSStartHighRdy
                0x000000000001727c                OSStartTsk
 .text          0x00000000000172a0      0x288 /home/nathan/Documents/Cours/EPFL_RTES_CS476/Code/mini_project_v2/sw/mini_project_v3_bsp//libucosii_bsp.a(os_cpu_c.o)
                0x00000000000172a0                OSTaskStkInit
                0x00000000000173fc                OSTaskCreateHook
                0x0000000000017420                OSTaskDelHook
                0x0000000000017444                OSTaskSwHook
                0x0000000000017464                OSTaskStatHook
                0x0000000000017484                OSTimeTickHook
                0x00000000000174a4                OSInitHookBegin
                0x00000000000174c4                OSInitHookEnd
                0x00000000000174e4                OSTaskIdleHook
                0x0000000000017504                OSTCBInitHook
 .text          0x0000000000017528        0x0 /home/nathan/Documents/Cours/EPFL_RTES_CS476/Code/mini_project_v2/sw/mini_project_v3_bsp//libucosii_bsp.a(alt_exception_entry.o)
 .text          0x0000000000017528       0x90 /home/nathan/Documents/Cours/EPFL_RTES_CS476/Code/mini_project_v2/sw/mini_project_v3_bsp//libucosii_bsp.a(alt_find_dev.o)
                0x0000000000017528                alt_find_dev
 .text          0x00000000000175b8      0x108 /home/nathan/Documents/Cours/EPFL_RTES_CS476/Code/mini_project_v2/sw/mini_project_v3_bsp//libucosii_bsp.a(alt_find_file.o)
                0x00000000000175b8                alt_find_file
 .text          0x00000000000176c0       0xdc /home/nathan/Documents/Cours/EPFL_RTES_CS476/Code/mini_project_v2/sw/mini_project_v3_bsp//libucosii_bsp.a(alt_get_fd.o)
                0x00000000000176c0                alt_get_fd
 .text          0x000000000001779c       0x9c /home/nathan/Documents/Cours/EPFL_RTES_CS476/Code/mini_project_v2/sw/mini_project_v3_bsp//libucosii_bsp.a(alt_instruction_exception_entry.o)
                0x000000000001779c                alt_exception_cause_generated_bad_addr
 .text          0x0000000000017838        0x0 /home/nathan/Documents/Misc/quartus-free/pkg/quartus-free/opt/altera/18.1/nios2eds/bin/gnu/H-x86_64-pc-linux-gnu/bin/../lib/gcc/nios2-elf/5.3.0/../../../../../H-x86_64-pc-linux-gnu/nios2-elf/lib/libc.a(lib_a-atexit.o)
 .text.atexit   0x0000000000017838       0x14 /home/nathan/Documents/Misc/quartus-free/pkg/quartus-free/opt/altera/18.1/nios2eds/bin/gnu/H-x86_64-pc-linux-gnu/bin/../lib/gcc/nios2-elf/5.3.0/../../../../../H-x86_64-pc-linux-gnu/nios2-elf/lib/libc.a(lib_a-atexit.o)
                0x0000000000017838                atexit
 .text          0x000000000001784c        0x0 /home/nathan/Documents/Misc/quartus-free/pkg/quartus-free/opt/altera/18.1/nios2eds/bin/gnu/H-x86_64-pc-linux-gnu/bin/../lib/gcc/nios2-elf/5.3.0/../../../../../H-x86_64-pc-linux-gnu/nios2-elf/lib/libc.a(lib_a-exit.o)
 .text.exit     0x000000000001784c       0x38 /home/nathan/Documents/Misc/quartus-free/pkg/quartus-free/opt/altera/18.1/nios2eds/bin/gnu/H-x86_64-pc-linux-gnu/bin/../lib/gcc/nios2-elf/5.3.0/../../../../../H-x86_64-pc-linux-gnu/nios2-elf/lib/libc.a(lib_a-exit.o)
                0x000000000001784c                exit
 .text          0x0000000000017884        0x0 /home/nathan/Documents/Misc/quartus-free/pkg/quartus-free/opt/altera/18.1/nios2eds/bin/gnu/H-x86_64-pc-linux-gnu/bin/../lib/gcc/nios2-elf/5.3.0/../../../../../H-x86_64-pc-linux-gnu/nios2-elf/lib/libc.a(lib_a-memcmp.o)
 .text.memcmp   0x0000000000017884       0x7c /home/nathan/Documents/Misc/quartus-free/pkg/quartus-free/opt/altera/18.1/nios2eds/bin/gnu/H-x86_64-pc-linux-gnu/bin/../lib/gcc/nios2-elf/5.3.0/../../../../../H-x86_64-pc-linux-gnu/nios2-elf/lib/libc.a(lib_a-memcmp.o)
                0x0000000000017884                memcmp
 .text          0x0000000000017900        0x0 /home/nathan/Documents/Misc/quartus-free/pkg/quartus-free/opt/altera/18.1/nios2eds/bin/gnu/H-x86_64-pc-linux-gnu/bin/../lib/gcc/nios2-elf/5.3.0/../../../../../H-x86_64-pc-linux-gnu/nios2-elf/lib/libc.a(lib_a-__atexit.o)
 .text.__register_exitproc
                0x0000000000017900      0x118 /home/nathan/Documents/Misc/quartus-free/pkg/quartus-free/opt/altera/18.1/nios2eds/bin/gnu/H-x86_64-pc-linux-gnu/bin/../lib/gcc/nios2-elf/5.3.0/../../../../../H-x86_64-pc-linux-gnu/nios2-elf/lib/libc.a(lib_a-__atexit.o)
                0x0000000000017900                __register_exitproc
 .text          0x0000000000017a18        0x0 /home/nathan/Documents/Misc/quartus-free/pkg/quartus-free/opt/altera/18.1/nios2eds/bin/gnu/H-x86_64-pc-linux-gnu/bin/../lib/gcc/nios2-elf/5.3.0/../../../../../H-x86_64-pc-linux-gnu/nios2-elf/lib/libc.a(lib_a-__call_atexit.o)
 .text.__call_exitprocs
                0x0000000000017a18      0x180 /home/nathan/Documents/Misc/quartus-free/pkg/quartus-free/opt/altera/18.1/nios2eds/bin/gnu/H-x86_64-pc-linux-gnu/bin/../lib/gcc/nios2-elf/5.3.0/../../../../../H-x86_64-pc-linux-gnu/nios2-elf/lib/libc.a(lib_a-__call_atexit.o)
                0x0000000000017a18                __call_exitprocs
 .text          0x0000000000017b98       0x34 /home/nathan/Documents/Cours/EPFL_RTES_CS476/Code/mini_project_v2/sw/mini_project_v3_bsp//libucosii_bsp.a(alt_exit.o)
                0x0000000000017b98                _exit
 *(.gnu.warning.*)
 *(.fini)
                [!provide]                        PROVIDE (__etext, ABSOLUTE (.))
                [!provide]                        PROVIDE (_etext, ABSOLUTE (.))
                [!provide]                        PROVIDE (etext, ABSOLUTE (.))
 *(.eh_frame_hdr)
                0x0000000000017bcc                . = ALIGN (0x4)
                [!provide]                        PROVIDE (__preinit_array_start, ABSOLUTE (.))
 *(.preinit_array)
                [!provide]                        PROVIDE (__preinit_array_end, ABSOLUTE (.))
                [!provide]                        PROVIDE (__init_array_start, ABSOLUTE (.))
 *(.init_array)
                [!provide]                        PROVIDE (__init_array_end, ABSOLUTE (.))
                [!provide]                        PROVIDE (__fini_array_start, ABSOLUTE (.))
 *(.fini_array)
                [!provide]                        PROVIDE (__fini_array_end, ABSOLUTE (.))
 *(.eh_frame)
 *(.gcc_except_table .gcc_except_table.*)
 *(.dynamic)
                0x0000000000017bcc                PROVIDE (__CTOR_LIST__, ABSOLUTE (.))
 *(.ctors)
 *(SORT(.ctors.*))
                0x0000000000017bcc                PROVIDE (__CTOR_END__, ABSOLUTE (.))
                0x0000000000017bcc                PROVIDE (__DTOR_LIST__, ABSOLUTE (.))
 *(.dtors)
 *(SORT(.dtors.*))
                0x0000000000017bcc                PROVIDE (__DTOR_END__, ABSOLUTE (.))
 *(.jcr)
                0x0000000000017bcc                . = ALIGN (0x4)

.rodata         0x0000000000017bcc      0x544
                0x0000000000017bcc                PROVIDE (__ram_rodata_start, ABSOLUTE (.))
                0x0000000000017bcc                . = ALIGN (0x4)
 *(.rodata .rodata.* .gnu.linkonce.r.*)
 .rodata        0x0000000000017bcc      0x120 obj/default/mini_project_with_fake_camera.o
                0x0000000000017bcc                map
 .rodata.str1.4
                0x0000000000017cec        0x2 /home/nathan/Documents/Misc/quartus-free/pkg/quartus-free/opt/altera/18.1/nios2eds/bin/gnu/H-x86_64-pc-linux-gnu/bin/../lib/gcc/nios2-elf/5.3.0/../../../../../H-x86_64-pc-linux-gnu/nios2-elf/lib/libc.a(lib_a-puts.o)
 *fill*         0x0000000000017cee        0x2 
 .rodata.str1.4
                0x0000000000017cf0       0x42 /home/nathan/Documents/Misc/quartus-free/pkg/quartus-free/opt/altera/18.1/nios2eds/bin/gnu/H-x86_64-pc-linux-gnu/bin/../lib/gcc/nios2-elf/5.3.0/../../../../../H-x86_64-pc-linux-gnu/nios2-elf/lib/libc.a(lib_a-vfprintf.o)
 .rodata.zeroes.4404
                0x0000000000017d32       0x10 /home/nathan/Documents/Misc/quartus-free/pkg/quartus-free/opt/altera/18.1/nios2eds/bin/gnu/H-x86_64-pc-linux-gnu/bin/../lib/gcc/nios2-elf/5.3.0/../../../../../H-x86_64-pc-linux-gnu/nios2-elf/lib/libc.a(lib_a-vfprintf.o)
 .rodata.blanks.4403
                0x0000000000017d42       0x10 /home/nathan/Documents/Misc/quartus-free/pkg/quartus-free/opt/altera/18.1/nios2eds/bin/gnu/H-x86_64-pc-linux-gnu/bin/../lib/gcc/nios2-elf/5.3.0/../../../../../H-x86_64-pc-linux-gnu/nios2-elf/lib/libc.a(lib_a-vfprintf.o)
 *fill*         0x0000000000017d52        0x2 
 .rodata.str1.4
                0x0000000000017d54       0x10 /home/nathan/Documents/Misc/quartus-free/pkg/quartus-free/opt/altera/18.1/nios2eds/bin/gnu/H-x86_64-pc-linux-gnu/bin/../lib/gcc/nios2-elf/5.3.0/../../../../../H-x86_64-pc-linux-gnu/nios2-elf/lib/libc.a(lib_a-dtoa.o)
                                         0x12 (size before relaxing)
 .rodata.str1.4
                0x0000000000017d64        0x2 /home/nathan/Documents/Misc/quartus-free/pkg/quartus-free/opt/altera/18.1/nios2eds/bin/gnu/H-x86_64-pc-linux-gnu/bin/../lib/gcc/nios2-elf/5.3.0/../../../../../H-x86_64-pc-linux-gnu/nios2-elf/lib/libc.a(lib_a-impure.o)
 *fill*         0x0000000000017d66        0x2 
 .rodata.str1.4
                0x0000000000017d68        0xc /home/nathan/Documents/Misc/quartus-free/pkg/quartus-free/opt/altera/18.1/nios2eds/bin/gnu/H-x86_64-pc-linux-gnu/bin/../lib/gcc/nios2-elf/5.3.0/../../../../../H-x86_64-pc-linux-gnu/nios2-elf/lib/libc.a(lib_a-locale.o)
                                         0x12 (size before relaxing)
 .rodata.p05.2768
                0x0000000000017d74        0xc /home/nathan/Documents/Misc/quartus-free/pkg/quartus-free/opt/altera/18.1/nios2eds/bin/gnu/H-x86_64-pc-linux-gnu/bin/../lib/gcc/nios2-elf/5.3.0/../../../../../H-x86_64-pc-linux-gnu/nios2-elf/lib/libc.a(lib_a-mprec.o)
 .rodata.__mprec_tinytens
                0x0000000000017d80       0x28 /home/nathan/Documents/Misc/quartus-free/pkg/quartus-free/opt/altera/18.1/nios2eds/bin/gnu/H-x86_64-pc-linux-gnu/bin/../lib/gcc/nios2-elf/5.3.0/../../../../../H-x86_64-pc-linux-gnu/nios2-elf/lib/libc.a(lib_a-mprec.o)
                0x0000000000017d80                __mprec_tinytens
 .rodata.__mprec_bigtens
                0x0000000000017da8       0x28 /home/nathan/Documents/Misc/quartus-free/pkg/quartus-free/opt/altera/18.1/nios2eds/bin/gnu/H-x86_64-pc-linux-gnu/bin/../lib/gcc/nios2-elf/5.3.0/../../../../../H-x86_64-pc-linux-gnu/nios2-elf/lib/libc.a(lib_a-mprec.o)
                0x0000000000017da8                __mprec_bigtens
 .rodata.__mprec_tens
                0x0000000000017dd0       0xc8 /home/nathan/Documents/Misc/quartus-free/pkg/quartus-free/opt/altera/18.1/nios2eds/bin/gnu/H-x86_64-pc-linux-gnu/bin/../lib/gcc/nios2-elf/5.3.0/../../../../../H-x86_64-pc-linux-gnu/nios2-elf/lib/libc.a(lib_a-mprec.o)
                0x0000000000017dd0                __mprec_tens
 .rodata.str1.4
                0x0000000000017e98       0x2f /home/nathan/Documents/Misc/quartus-free/pkg/quartus-free/opt/altera/18.1/nios2eds/bin/gnu/H-x86_64-pc-linux-gnu/bin/../lib/gcc/nios2-elf/5.3.0/../../../../../H-x86_64-pc-linux-gnu/nios2-elf/lib/libc.a(lib_a-vfiprintf.o)
 .rodata.zeroes.4349
                0x0000000000017e98       0x10 /home/nathan/Documents/Misc/quartus-free/pkg/quartus-free/opt/altera/18.1/nios2eds/bin/gnu/H-x86_64-pc-linux-gnu/bin/../lib/gcc/nios2-elf/5.3.0/../../../../../H-x86_64-pc-linux-gnu/nios2-elf/lib/libc.a(lib_a-vfiprintf.o)
 .rodata.blanks.4348
                0x0000000000017ea8       0x10 /home/nathan/Documents/Misc/quartus-free/pkg/quartus-free/opt/altera/18.1/nios2eds/bin/gnu/H-x86_64-pc-linux-gnu/bin/../lib/gcc/nios2-elf/5.3.0/../../../../../H-x86_64-pc-linux-gnu/nios2-elf/lib/libc.a(lib_a-vfiprintf.o)
 .rodata        0x0000000000017eb8      0x100 /home/nathan/Documents/Misc/quartus-free/pkg/quartus-free/opt/altera/18.1/nios2eds/bin/gnu/H-x86_64-pc-linux-gnu/bin/../lib/gcc/nios2-elf/5.3.0/libgcc.a(_clz.o)
                0x0000000000017eb8                __clz_tab
 .rodata        0x0000000000017fb8        0xa /home/nathan/Documents/Cours/EPFL_RTES_CS476/Code/mini_project_v2/sw/mini_project_v3_bsp//libucosii_bsp.a(alt_dev.o)
 *fill*         0x0000000000017fc2        0x2 
 .rodata        0x0000000000017fc4       0x11 /home/nathan/Documents/Cours/EPFL_RTES_CS476/Code/mini_project_v2/sw/mini_project_v3_bsp//libucosii_bsp.a(alt_main.o)
 *fill*         0x0000000000017fd5        0x3 
 .rodata        0x0000000000017fd8      0x11e /home/nathan/Documents/Cours/EPFL_RTES_CS476/Code/mini_project_v2/sw/mini_project_v3_bsp//libucosii_bsp.a(os_core.o)
                0x0000000000017fd8                OSUnMapTbl
 *fill*         0x00000000000180f6        0x2 
 .rodata        0x00000000000180f8       0x11 /home/nathan/Documents/Cours/EPFL_RTES_CS476/Code/mini_project_v2/sw/mini_project_v3_bsp//libucosii_bsp.a(alt_sys_init.o)
 *fill*         0x0000000000018109        0x3 
 .rodata        0x000000000001810c        0x2 /home/nathan/Documents/Cours/EPFL_RTES_CS476/Code/mini_project_v2/sw/mini_project_v3_bsp//libucosii_bsp.a(os_cpu_c.o)
 *(.rodata1)
                0x0000000000018110                . = ALIGN (0x4)
 *fill*         0x000000000001810e        0x2 
                0x0000000000018110                PROVIDE (__ram_rodata_end, ABSOLUTE (.))
                0x0000000000017bcc                PROVIDE (__flash_rodata_start, LOADADDR (.rodata))

.rwdata         0x0000000000018110     0x1b74 load address 0x0000000000019c84
                0x0000000000018110                PROVIDE (__ram_rwdata_start, ABSOLUTE (.))
                0x0000000000018110                . = ALIGN (0x4)
 *(.got.plt)
 *(.got)
 *(.data1)
 *(.data .data.* .gnu.linkonce.d.*)
 .data          0x0000000000018110        0x0 /home/nathan/Documents/Cours/EPFL_RTES_CS476/Code/mini_project_v2/sw/mini_project_v3_bsp//obj/HAL/src/crt0.o
 .data          0x0000000000018110        0x0 obj/default/mini_project_with_fake_camera.o
 .data          0x0000000000018110        0x0 /home/nathan/Documents/Misc/quartus-free/pkg/quartus-free/opt/altera/18.1/nios2eds/bin/gnu/H-x86_64-pc-linux-gnu/bin/../lib/gcc/nios2-elf/5.3.0/libgcc.a(lib2-divmod.o)
 .data          0x0000000000018110        0x0 /home/nathan/Documents/Misc/quartus-free/pkg/quartus-free/opt/altera/18.1/nios2eds/bin/gnu/H-x86_64-pc-linux-gnu/bin/../lib/gcc/nios2-elf/5.3.0/../../../../../H-x86_64-pc-linux-gnu/nios2-elf/lib/libc.a(lib_a-malloc.o)
 .data          0x0000000000018110        0x0 /home/nathan/Documents/Misc/quartus-free/pkg/quartus-free/opt/altera/18.1/nios2eds/bin/gnu/H-x86_64-pc-linux-gnu/bin/../lib/gcc/nios2-elf/5.3.0/../../../../../H-x86_64-pc-linux-gnu/nios2-elf/lib/libc.a(lib_a-mallocr.o)
 .data.__malloc_av_
                0x0000000000018110      0x408 /home/nathan/Documents/Misc/quartus-free/pkg/quartus-free/opt/altera/18.1/nios2eds/bin/gnu/H-x86_64-pc-linux-gnu/bin/../lib/gcc/nios2-elf/5.3.0/../../../../../H-x86_64-pc-linux-gnu/nios2-elf/lib/libc.a(lib_a-mallocr.o)
                0x0000000000018110                __malloc_av_
 .data          0x0000000000018518        0x0 /home/nathan/Documents/Misc/quartus-free/pkg/quartus-free/opt/altera/18.1/nios2eds/bin/gnu/H-x86_64-pc-linux-gnu/bin/../lib/gcc/nios2-elf/5.3.0/../../../../../H-x86_64-pc-linux-gnu/nios2-elf/lib/libc.a(lib_a-printf.o)
 .data          0x0000000000018518        0x0 /home/nathan/Documents/Misc/quartus-free/pkg/quartus-free/opt/altera/18.1/nios2eds/bin/gnu/H-x86_64-pc-linux-gnu/bin/../lib/gcc/nios2-elf/5.3.0/../../../../../H-x86_64-pc-linux-gnu/nios2-elf/lib/libc.a(lib_a-puts.o)
 .data          0x0000000000018518        0x0 /home/nathan/Documents/Misc/quartus-free/pkg/quartus-free/opt/altera/18.1/nios2eds/bin/gnu/H-x86_64-pc-linux-gnu/bin/../lib/gcc/nios2-elf/5.3.0/../../../../../H-x86_64-pc-linux-gnu/nios2-elf/lib/libc.a(lib_a-sbrkr.o)
 .data          0x0000000000018518        0x0 /home/nathan/Documents/Misc/quartus-free/pkg/quartus-free/opt/altera/18.1/nios2eds/bin/gnu/H-x86_64-pc-linux-gnu/bin/../lib/gcc/nios2-elf/5.3.0/../../../../../H-x86_64-pc-linux-gnu/nios2-elf/lib/libc.a(lib_a-strlen.o)
 .data          0x0000000000018518        0x0 /home/nathan/Documents/Misc/quartus-free/pkg/quartus-free/opt/altera/18.1/nios2eds/bin/gnu/H-x86_64-pc-linux-gnu/bin/../lib/gcc/nios2-elf/5.3.0/../../../../../H-x86_64-pc-linux-gnu/nios2-elf/lib/libc.a(lib_a-vfprintf.o)
 .data          0x0000000000018518        0x0 /home/nathan/Documents/Misc/quartus-free/pkg/quartus-free/opt/altera/18.1/nios2eds/bin/gnu/H-x86_64-pc-linux-gnu/bin/../lib/gcc/nios2-elf/5.3.0/../../../../../H-x86_64-pc-linux-gnu/nios2-elf/lib/libc.a(lib_a-wsetup.o)
 .data          0x0000000000018518        0x0 /home/nathan/Documents/Misc/quartus-free/pkg/quartus-free/opt/altera/18.1/nios2eds/bin/gnu/H-x86_64-pc-linux-gnu/bin/../lib/gcc/nios2-elf/5.3.0/../../../../../H-x86_64-pc-linux-gnu/nios2-elf/lib/libc.a(lib_a-dtoa.o)
 .data          0x0000000000018518        0x0 /home/nathan/Documents/Misc/quartus-free/pkg/quartus-free/opt/altera/18.1/nios2eds/bin/gnu/H-x86_64-pc-linux-gnu/bin/../lib/gcc/nios2-elf/5.3.0/../../../../../H-x86_64-pc-linux-gnu/nios2-elf/lib/libc.a(lib_a-fflush.o)
 .data          0x0000000000018518        0x0 /home/nathan/Documents/Misc/quartus-free/pkg/quartus-free/opt/altera/18.1/nios2eds/bin/gnu/H-x86_64-pc-linux-gnu/bin/../lib/gcc/nios2-elf/5.3.0/../../../../../H-x86_64-pc-linux-gnu/nios2-elf/lib/libc.a(lib_a-findfp.o)
 .data          0x0000000000018518        0x0 /home/nathan/Documents/Misc/quartus-free/pkg/quartus-free/opt/altera/18.1/nios2eds/bin/gnu/H-x86_64-pc-linux-gnu/bin/../lib/gcc/nios2-elf/5.3.0/../../../../../H-x86_64-pc-linux-gnu/nios2-elf/lib/libc.a(lib_a-freer.o)
 .data          0x0000000000018518        0x0 /home/nathan/Documents/Misc/quartus-free/pkg/quartus-free/opt/altera/18.1/nios2eds/bin/gnu/H-x86_64-pc-linux-gnu/bin/../lib/gcc/nios2-elf/5.3.0/../../../../../H-x86_64-pc-linux-gnu/nios2-elf/lib/libc.a(lib_a-fvwrite.o)
 .data          0x0000000000018518        0x0 /home/nathan/Documents/Misc/quartus-free/pkg/quartus-free/opt/altera/18.1/nios2eds/bin/gnu/H-x86_64-pc-linux-gnu/bin/../lib/gcc/nios2-elf/5.3.0/../../../../../H-x86_64-pc-linux-gnu/nios2-elf/lib/libc.a(lib_a-fwalk.o)
 .data          0x0000000000018518        0x0 /home/nathan/Documents/Misc/quartus-free/pkg/quartus-free/opt/altera/18.1/nios2eds/bin/gnu/H-x86_64-pc-linux-gnu/bin/../lib/gcc/nios2-elf/5.3.0/../../../../../H-x86_64-pc-linux-gnu/nios2-elf/lib/libc.a(lib_a-impure.o)
 .data.impure_data
                0x0000000000018518      0x424 /home/nathan/Documents/Misc/quartus-free/pkg/quartus-free/opt/altera/18.1/nios2eds/bin/gnu/H-x86_64-pc-linux-gnu/bin/../lib/gcc/nios2-elf/5.3.0/../../../../../H-x86_64-pc-linux-gnu/nios2-elf/lib/libc.a(lib_a-impure.o)
 .data          0x000000000001893c        0x0 /home/nathan/Documents/Misc/quartus-free/pkg/quartus-free/opt/altera/18.1/nios2eds/bin/gnu/H-x86_64-pc-linux-gnu/bin/../lib/gcc/nios2-elf/5.3.0/../../../../../H-x86_64-pc-linux-gnu/nios2-elf/lib/libc.a(lib_a-int_errno.o)
 .data          0x000000000001893c        0x0 /home/nathan/Documents/Misc/quartus-free/pkg/quartus-free/opt/altera/18.1/nios2eds/bin/gnu/H-x86_64-pc-linux-gnu/bin/../lib/gcc/nios2-elf/5.3.0/../../../../../H-x86_64-pc-linux-gnu/nios2-elf/lib/libc.a(lib_a-locale.o)
 .data.lc_message_charset
                0x000000000001893c       0x20 /home/nathan/Documents/Misc/quartus-free/pkg/quartus-free/opt/altera/18.1/nios2eds/bin/gnu/H-x86_64-pc-linux-gnu/bin/../lib/gcc/nios2-elf/5.3.0/../../../../../H-x86_64-pc-linux-gnu/nios2-elf/lib/libc.a(lib_a-locale.o)
 .data.lc_ctype_charset
                0x000000000001895c       0x20 /home/nathan/Documents/Misc/quartus-free/pkg/quartus-free/opt/altera/18.1/nios2eds/bin/gnu/H-x86_64-pc-linux-gnu/bin/../lib/gcc/nios2-elf/5.3.0/../../../../../H-x86_64-pc-linux-gnu/nios2-elf/lib/libc.a(lib_a-locale.o)
 .data.lconv    0x000000000001897c       0x38 /home/nathan/Documents/Misc/quartus-free/pkg/quartus-free/opt/altera/18.1/nios2eds/bin/gnu/H-x86_64-pc-linux-gnu/bin/../lib/gcc/nios2-elf/5.3.0/../../../../../H-x86_64-pc-linux-gnu/nios2-elf/lib/libc.a(lib_a-locale.o)
 .data          0x00000000000189b4        0x0 /home/nathan/Documents/Misc/quartus-free/pkg/quartus-free/opt/altera/18.1/nios2eds/bin/gnu/H-x86_64-pc-linux-gnu/bin/../lib/gcc/nios2-elf/5.3.0/../../../../../H-x86_64-pc-linux-gnu/nios2-elf/lib/libc.a(lib_a-makebuf.o)
 .data          0x00000000000189b4        0x0 /home/nathan/Documents/Misc/quartus-free/pkg/quartus-free/opt/altera/18.1/nios2eds/bin/gnu/H-x86_64-pc-linux-gnu/bin/../lib/gcc/nios2-elf/5.3.0/../../../../../H-x86_64-pc-linux-gnu/nios2-elf/lib/libc.a(lib_a-memchr.o)
 .data          0x00000000000189b4        0x0 /home/nathan/Documents/Misc/quartus-free/pkg/quartus-free/opt/altera/18.1/nios2eds/bin/gnu/H-x86_64-pc-linux-gnu/bin/../lib/gcc/nios2-elf/5.3.0/../../../../../H-x86_64-pc-linux-gnu/nios2-elf/lib/libc.a(lib_a-memcpy.o)
 .data          0x00000000000189b4        0x0 /home/nathan/Documents/Misc/quartus-free/pkg/quartus-free/opt/altera/18.1/nios2eds/bin/gnu/H-x86_64-pc-linux-gnu/bin/../lib/gcc/nios2-elf/5.3.0/../../../../../H-x86_64-pc-linux-gnu/nios2-elf/lib/libc.a(lib_a-memmove.o)
 .data          0x00000000000189b4        0x0 /home/nathan/Documents/Misc/quartus-free/pkg/quartus-free/opt/altera/18.1/nios2eds/bin/gnu/H-x86_64-pc-linux-gnu/bin/../lib/gcc/nios2-elf/5.3.0/../../../../../H-x86_64-pc-linux-gnu/nios2-elf/lib/libc.a(lib_a-memset.o)
 .data          0x00000000000189b4        0x0 /home/nathan/Documents/Misc/quartus-free/pkg/quartus-free/opt/altera/18.1/nios2eds/bin/gnu/H-x86_64-pc-linux-gnu/bin/../lib/gcc/nios2-elf/5.3.0/../../../../../H-x86_64-pc-linux-gnu/nios2-elf/lib/libc.a(lib_a-mprec.o)
 .data          0x00000000000189b4        0x0 /home/nathan/Documents/Misc/quartus-free/pkg/quartus-free/opt/altera/18.1/nios2eds/bin/gnu/H-x86_64-pc-linux-gnu/bin/../lib/gcc/nios2-elf/5.3.0/../../../../../H-x86_64-pc-linux-gnu/nios2-elf/lib/libc.a(lib_a-reallocr.o)
 .data          0x00000000000189b4        0x0 /home/nathan/Documents/Misc/quartus-free/pkg/quartus-free/opt/altera/18.1/nios2eds/bin/gnu/H-x86_64-pc-linux-gnu/bin/../lib/gcc/nios2-elf/5.3.0/../../../../../H-x86_64-pc-linux-gnu/nios2-elf/lib/libc.a(lib_a-s_fpclassify.o)
 .data          0x00000000000189b4        0x0 /home/nathan/Documents/Misc/quartus-free/pkg/quartus-free/opt/altera/18.1/nios2eds/bin/gnu/H-x86_64-pc-linux-gnu/bin/../lib/gcc/nios2-elf/5.3.0/../../../../../H-x86_64-pc-linux-gnu/nios2-elf/lib/libc.a(lib_a-stdio.o)
 .data          0x00000000000189b4        0x0 /home/nathan/Documents/Misc/quartus-free/pkg/quartus-free/opt/altera/18.1/nios2eds/bin/gnu/H-x86_64-pc-linux-gnu/bin/../lib/gcc/nios2-elf/5.3.0/../../../../../H-x86_64-pc-linux-gnu/nios2-elf/lib/libc.a(lib_a-strcmp.o)
 .data          0x00000000000189b4        0x0 /home/nathan/Documents/Misc/quartus-free/pkg/quartus-free/opt/altera/18.1/nios2eds/bin/gnu/H-x86_64-pc-linux-gnu/bin/../lib/gcc/nios2-elf/5.3.0/../../../../../H-x86_64-pc-linux-gnu/nios2-elf/lib/libc.a(lib_a-vfiprintf.o)
 .data          0x00000000000189b4        0x0 /home/nathan/Documents/Misc/quartus-free/pkg/quartus-free/opt/altera/18.1/nios2eds/bin/gnu/H-x86_64-pc-linux-gnu/bin/../lib/gcc/nios2-elf/5.3.0/../../../../../H-x86_64-pc-linux-gnu/nios2-elf/lib/libc.a(lib_a-writer.o)
 .data          0x00000000000189b4        0x0 /home/nathan/Documents/Misc/quartus-free/pkg/quartus-free/opt/altera/18.1/nios2eds/bin/gnu/H-x86_64-pc-linux-gnu/bin/../lib/gcc/nios2-elf/5.3.0/../../../../../H-x86_64-pc-linux-gnu/nios2-elf/lib/libc.a(closer.o)
 .data          0x00000000000189b4        0x0 /home/nathan/Documents/Misc/quartus-free/pkg/quartus-free/opt/altera/18.1/nios2eds/bin/gnu/H-x86_64-pc-linux-gnu/bin/../lib/gcc/nios2-elf/5.3.0/../../../../../H-x86_64-pc-linux-gnu/nios2-elf/lib/libc.a(lib_a-callocr.o)
 .data          0x00000000000189b4        0x0 /home/nathan/Documents/Misc/quartus-free/pkg/quartus-free/opt/altera/18.1/nios2eds/bin/gnu/H-x86_64-pc-linux-gnu/bin/../lib/gcc/nios2-elf/5.3.0/../../../../../H-x86_64-pc-linux-gnu/nios2-elf/lib/libc.a(lib_a-fclose.o)
 .data          0x00000000000189b4        0x0 /home/nathan/Documents/Misc/quartus-free/pkg/quartus-free/opt/altera/18.1/nios2eds/bin/gnu/H-x86_64-pc-linux-gnu/bin/../lib/gcc/nios2-elf/5.3.0/../../../../../H-x86_64-pc-linux-gnu/nios2-elf/lib/libc.a(lib_a-fputwc.o)
 .data          0x00000000000189b4        0x0 /home/nathan/Documents/Misc/quartus-free/pkg/quartus-free/opt/altera/18.1/nios2eds/bin/gnu/H-x86_64-pc-linux-gnu/bin/../lib/gcc/nios2-elf/5.3.0/../../../../../H-x86_64-pc-linux-gnu/nios2-elf/lib/libc.a(lib_a-fstatr.o)
 .data          0x00000000000189b4        0x0 /home/nathan/Documents/Misc/quartus-free/pkg/quartus-free/opt/altera/18.1/nios2eds/bin/gnu/H-x86_64-pc-linux-gnu/bin/../lib/gcc/nios2-elf/5.3.0/../../../../../H-x86_64-pc-linux-gnu/nios2-elf/lib/libc.a(lib_a-isattyr.o)
 .data          0x00000000000189b4        0x0 /home/nathan/Documents/Misc/quartus-free/pkg/quartus-free/opt/altera/18.1/nios2eds/bin/gnu/H-x86_64-pc-linux-gnu/bin/../lib/gcc/nios2-elf/5.3.0/../../../../../H-x86_64-pc-linux-gnu/nios2-elf/lib/libc.a(lib_a-lseekr.o)
 .data          0x00000000000189b4        0x0 /home/nathan/Documents/Misc/quartus-free/pkg/quartus-free/opt/altera/18.1/nios2eds/bin/gnu/H-x86_64-pc-linux-gnu/bin/../lib/gcc/nios2-elf/5.3.0/../../../../../H-x86_64-pc-linux-gnu/nios2-elf/lib/libc.a(lib_a-readr.o)
 .data          0x00000000000189b4        0x0 /home/nathan/Documents/Misc/quartus-free/pkg/quartus-free/opt/altera/18.1/nios2eds/bin/gnu/H-x86_64-pc-linux-gnu/bin/../lib/gcc/nios2-elf/5.3.0/../../../../../H-x86_64-pc-linux-gnu/nios2-elf/lib/libc.a(lib_a-wbuf.o)
 .data          0x00000000000189b4        0x0 /home/nathan/Documents/Misc/quartus-free/pkg/quartus-free/opt/altera/18.1/nios2eds/bin/gnu/H-x86_64-pc-linux-gnu/bin/../lib/gcc/nios2-elf/5.3.0/../../../../../H-x86_64-pc-linux-gnu/nios2-elf/lib/libc.a(lib_a-wcrtomb.o)
 .data          0x00000000000189b4        0x0 /home/nathan/Documents/Misc/quartus-free/pkg/quartus-free/opt/altera/18.1/nios2eds/bin/gnu/H-x86_64-pc-linux-gnu/bin/../lib/gcc/nios2-elf/5.3.0/../../../../../H-x86_64-pc-linux-gnu/nios2-elf/lib/libc.a(lib_a-wctomb_r.o)
 .data          0x00000000000189b4        0x0 /home/nathan/Documents/Misc/quartus-free/pkg/quartus-free/opt/altera/18.1/nios2eds/bin/gnu/H-x86_64-pc-linux-gnu/bin/../lib/gcc/nios2-elf/5.3.0/libgcc.a(_udivdi3.o)
 .data          0x00000000000189b4        0x0 /home/nathan/Documents/Misc/quartus-free/pkg/quartus-free/opt/altera/18.1/nios2eds/bin/gnu/H-x86_64-pc-linux-gnu/bin/../lib/gcc/nios2-elf/5.3.0/libgcc.a(_umoddi3.o)
 .data          0x00000000000189b4        0x0 /home/nathan/Documents/Misc/quartus-free/pkg/quartus-free/opt/altera/18.1/nios2eds/bin/gnu/H-x86_64-pc-linux-gnu/bin/../lib/gcc/nios2-elf/5.3.0/libgcc.a(adddf3.o)
 .data          0x00000000000189b4        0x0 /home/nathan/Documents/Misc/quartus-free/pkg/quartus-free/opt/altera/18.1/nios2eds/bin/gnu/H-x86_64-pc-linux-gnu/bin/../lib/gcc/nios2-elf/5.3.0/libgcc.a(divdf3.o)
 .data          0x00000000000189b4        0x0 /home/nathan/Documents/Misc/quartus-free/pkg/quartus-free/opt/altera/18.1/nios2eds/bin/gnu/H-x86_64-pc-linux-gnu/bin/../lib/gcc/nios2-elf/5.3.0/libgcc.a(eqdf2.o)
 .data          0x00000000000189b4        0x0 /home/nathan/Documents/Misc/quartus-free/pkg/quartus-free/opt/altera/18.1/nios2eds/bin/gnu/H-x86_64-pc-linux-gnu/bin/../lib/gcc/nios2-elf/5.3.0/libgcc.a(gedf2.o)
 .data          0x00000000000189b4        0x0 /home/nathan/Documents/Misc/quartus-free/pkg/quartus-free/opt/altera/18.1/nios2eds/bin/gnu/H-x86_64-pc-linux-gnu/bin/../lib/gcc/nios2-elf/5.3.0/libgcc.a(ledf2.o)
 .data          0x00000000000189b4        0x0 /home/nathan/Documents/Misc/quartus-free/pkg/quartus-free/opt/altera/18.1/nios2eds/bin/gnu/H-x86_64-pc-linux-gnu/bin/../lib/gcc/nios2-elf/5.3.0/libgcc.a(muldf3.o)
 .data          0x00000000000189b4        0x0 /home/nathan/Documents/Misc/quartus-free/pkg/quartus-free/opt/altera/18.1/nios2eds/bin/gnu/H-x86_64-pc-linux-gnu/bin/../lib/gcc/nios2-elf/5.3.0/libgcc.a(subdf3.o)
 .data          0x00000000000189b4        0x0 /home/nathan/Documents/Misc/quartus-free/pkg/quartus-free/opt/altera/18.1/nios2eds/bin/gnu/H-x86_64-pc-linux-gnu/bin/../lib/gcc/nios2-elf/5.3.0/libgcc.a(fixdfsi.o)
 .data          0x00000000000189b4        0x0 /home/nathan/Documents/Misc/quartus-free/pkg/quartus-free/opt/altera/18.1/nios2eds/bin/gnu/H-x86_64-pc-linux-gnu/bin/../lib/gcc/nios2-elf/5.3.0/libgcc.a(floatsidf.o)
 .data          0x00000000000189b4        0x0 /home/nathan/Documents/Misc/quartus-free/pkg/quartus-free/opt/altera/18.1/nios2eds/bin/gnu/H-x86_64-pc-linux-gnu/bin/../lib/gcc/nios2-elf/5.3.0/libgcc.a(floatunsidf.o)
 .data          0x00000000000189b4        0x0 /home/nathan/Documents/Misc/quartus-free/pkg/quartus-free/opt/altera/18.1/nios2eds/bin/gnu/H-x86_64-pc-linux-gnu/bin/../lib/gcc/nios2-elf/5.3.0/libgcc.a(_clz.o)
 .data          0x00000000000189b4        0x0 /home/nathan/Documents/Misc/quartus-free/pkg/quartus-free/opt/altera/18.1/nios2eds/bin/gnu/H-x86_64-pc-linux-gnu/bin/../lib/gcc/nios2-elf/5.3.0/libgcc.a(_clzsi2.o)
 .data          0x00000000000189b4        0x0 /home/nathan/Documents/Cours/EPFL_RTES_CS476/Code/mini_project_v2/sw/mini_project_v3_bsp//libucosii_bsp.a(alt_close.o)
 .data          0x00000000000189b4      0x1a8 /home/nathan/Documents/Cours/EPFL_RTES_CS476/Code/mini_project_v2/sw/mini_project_v3_bsp//libucosii_bsp.a(alt_dev.o)
                0x00000000000189b4                alt_dev_null
                0x00000000000189dc                alt_fd_list
 .data          0x0000000000018b5c        0x0 /home/nathan/Documents/Cours/EPFL_RTES_CS476/Code/mini_project_v2/sw/mini_project_v3_bsp//libucosii_bsp.a(alt_errno.o)
 .data          0x0000000000018b5c        0x0 /home/nathan/Documents/Cours/EPFL_RTES_CS476/Code/mini_project_v2/sw/mini_project_v3_bsp//libucosii_bsp.a(alt_fstat.o)
 .data          0x0000000000018b5c        0x0 /home/nathan/Documents/Cours/EPFL_RTES_CS476/Code/mini_project_v2/sw/mini_project_v3_bsp//libucosii_bsp.a(alt_isatty.o)
 .data          0x0000000000018b5c        0x0 /home/nathan/Documents/Cours/EPFL_RTES_CS476/Code/mini_project_v2/sw/mini_project_v3_bsp//libucosii_bsp.a(alt_load.o)
 .data          0x0000000000018b5c        0x0 /home/nathan/Documents/Cours/EPFL_RTES_CS476/Code/mini_project_v2/sw/mini_project_v3_bsp//libucosii_bsp.a(alt_lseek.o)
 .data          0x0000000000018b5c        0x0 /home/nathan/Documents/Cours/EPFL_RTES_CS476/Code/mini_project_v2/sw/mini_project_v3_bsp//libucosii_bsp.a(alt_main.o)
 .data          0x0000000000018b5c        0x0 /home/nathan/Documents/Cours/EPFL_RTES_CS476/Code/mini_project_v2/sw/mini_project_v3_bsp//libucosii_bsp.a(alt_read.o)
 .data          0x0000000000018b5c        0x0 /home/nathan/Documents/Cours/EPFL_RTES_CS476/Code/mini_project_v2/sw/mini_project_v3_bsp//libucosii_bsp.a(alt_release_fd.o)
 .data          0x0000000000018b5c        0x0 /home/nathan/Documents/Cours/EPFL_RTES_CS476/Code/mini_project_v2/sw/mini_project_v3_bsp//libucosii_bsp.a(alt_sbrk.o)
 .data          0x0000000000018b5c        0x0 /home/nathan/Documents/Cours/EPFL_RTES_CS476/Code/mini_project_v2/sw/mini_project_v3_bsp//libucosii_bsp.a(alt_write.o)
 .data          0x0000000000018b5c        0x0 /home/nathan/Documents/Cours/EPFL_RTES_CS476/Code/mini_project_v2/sw/mini_project_v3_bsp//libucosii_bsp.a(alt_env_lock.o)
 .data          0x0000000000018b5c        0x0 /home/nathan/Documents/Cours/EPFL_RTES_CS476/Code/mini_project_v2/sw/mini_project_v3_bsp//libucosii_bsp.a(alt_malloc_lock.o)
 .data          0x0000000000018b5c        0x0 /home/nathan/Documents/Cours/EPFL_RTES_CS476/Code/mini_project_v2/sw/mini_project_v3_bsp//libucosii_bsp.a(os_core.o)
 .data          0x0000000000018b5c        0x0 /home/nathan/Documents/Cours/EPFL_RTES_CS476/Code/mini_project_v2/sw/mini_project_v3_bsp//libucosii_bsp.a(os_dbg.o)
 .data          0x0000000000018b5c        0x0 /home/nathan/Documents/Cours/EPFL_RTES_CS476/Code/mini_project_v2/sw/mini_project_v3_bsp//libucosii_bsp.a(os_flag.o)
 .data          0x0000000000018b5c        0x0 /home/nathan/Documents/Cours/EPFL_RTES_CS476/Code/mini_project_v2/sw/mini_project_v3_bsp//libucosii_bsp.a(os_mem.o)
 .data          0x0000000000018b5c        0x0 /home/nathan/Documents/Cours/EPFL_RTES_CS476/Code/mini_project_v2/sw/mini_project_v3_bsp//libucosii_bsp.a(os_q.o)
 .data          0x0000000000018b5c        0x0 /home/nathan/Documents/Cours/EPFL_RTES_CS476/Code/mini_project_v2/sw/mini_project_v3_bsp//libucosii_bsp.a(os_sem.o)
 .data          0x0000000000018b5c        0x0 /home/nathan/Documents/Cours/EPFL_RTES_CS476/Code/mini_project_v2/sw/mini_project_v3_bsp//libucosii_bsp.a(os_task.o)
 .data          0x0000000000018b5c        0x0 /home/nathan/Documents/Cours/EPFL_RTES_CS476/Code/mini_project_v2/sw/mini_project_v3_bsp//libucosii_bsp.a(os_time.o)
 .data          0x0000000000018b5c     0x106c /home/nathan/Documents/Cours/EPFL_RTES_CS476/Code/mini_project_v2/sw/mini_project_v3_bsp//libucosii_bsp.a(alt_sys_init.o)
 .data          0x0000000000019bc8        0x0 /home/nathan/Documents/Cours/EPFL_RTES_CS476/Code/mini_project_v2/sw/mini_project_v3_bsp//libucosii_bsp.a(altera_avalon_jtag_uart_fd.o)
 .data          0x0000000000019bc8        0x0 /home/nathan/Documents/Cours/EPFL_RTES_CS476/Code/mini_project_v2/sw/mini_project_v3_bsp//libucosii_bsp.a(altera_avalon_jtag_uart_init.o)
 .data          0x0000000000019bc8        0x0 /home/nathan/Documents/Cours/EPFL_RTES_CS476/Code/mini_project_v2/sw/mini_project_v3_bsp//libucosii_bsp.a(altera_avalon_jtag_uart_ioctl.o)
 .data          0x0000000000019bc8        0x0 /home/nathan/Documents/Cours/EPFL_RTES_CS476/Code/mini_project_v2/sw/mini_project_v3_bsp//libucosii_bsp.a(altera_avalon_jtag_uart_read.o)
 .data          0x0000000000019bc8        0x0 /home/nathan/Documents/Cours/EPFL_RTES_CS476/Code/mini_project_v2/sw/mini_project_v3_bsp//libucosii_bsp.a(altera_avalon_jtag_uart_write.o)
 .data          0x0000000000019bc8        0x0 /home/nathan/Documents/Cours/EPFL_RTES_CS476/Code/mini_project_v2/sw/mini_project_v3_bsp//libucosii_bsp.a(altera_avalon_timer_sc.o)
 .data          0x0000000000019bc8        0x0 /home/nathan/Documents/Cours/EPFL_RTES_CS476/Code/mini_project_v2/sw/mini_project_v3_bsp//libucosii_bsp.a(alt_alarm_start.o)
 .data          0x0000000000019bc8        0x0 /home/nathan/Documents/Cours/EPFL_RTES_CS476/Code/mini_project_v2/sw/mini_project_v3_bsp//libucosii_bsp.a(alt_dcache_flush_all.o)
 .data          0x0000000000019bc8        0x0 /home/nathan/Documents/Cours/EPFL_RTES_CS476/Code/mini_project_v2/sw/mini_project_v3_bsp//libucosii_bsp.a(alt_dev_llist_insert.o)
 .data          0x0000000000019bc8        0x0 /home/nathan/Documents/Cours/EPFL_RTES_CS476/Code/mini_project_v2/sw/mini_project_v3_bsp//libucosii_bsp.a(alt_do_ctors.o)
 .data          0x0000000000019bc8        0x0 /home/nathan/Documents/Cours/EPFL_RTES_CS476/Code/mini_project_v2/sw/mini_project_v3_bsp//libucosii_bsp.a(alt_do_dtors.o)
 .data          0x0000000000019bc8        0x0 /home/nathan/Documents/Cours/EPFL_RTES_CS476/Code/mini_project_v2/sw/mini_project_v3_bsp//libucosii_bsp.a(alt_icache_flush_all.o)
 .data          0x0000000000019bc8        0x0 /home/nathan/Documents/Cours/EPFL_RTES_CS476/Code/mini_project_v2/sw/mini_project_v3_bsp//libucosii_bsp.a(alt_iic.o)
 .data          0x0000000000019bc8        0x0 /home/nathan/Documents/Cours/EPFL_RTES_CS476/Code/mini_project_v2/sw/mini_project_v3_bsp//libucosii_bsp.a(alt_iic_isr_register.o)
 .data          0x0000000000019bc8        0x0 /home/nathan/Documents/Cours/EPFL_RTES_CS476/Code/mini_project_v2/sw/mini_project_v3_bsp//libucosii_bsp.a(alt_io_redirect.o)
 .data          0x0000000000019bc8        0x0 /home/nathan/Documents/Cours/EPFL_RTES_CS476/Code/mini_project_v2/sw/mini_project_v3_bsp//libucosii_bsp.a(alt_irq_entry.o)
 .data          0x0000000000019bc8        0x0 /home/nathan/Documents/Cours/EPFL_RTES_CS476/Code/mini_project_v2/sw/mini_project_v3_bsp//libucosii_bsp.a(alt_irq_handler.o)
 .data          0x0000000000019bc8        0x0 /home/nathan/Documents/Cours/EPFL_RTES_CS476/Code/mini_project_v2/sw/mini_project_v3_bsp//libucosii_bsp.a(alt_irq_vars.o)
 .data          0x0000000000019bc8        0x0 /home/nathan/Documents/Cours/EPFL_RTES_CS476/Code/mini_project_v2/sw/mini_project_v3_bsp//libucosii_bsp.a(alt_open.o)
 .data          0x0000000000019bc8        0x0 /home/nathan/Documents/Cours/EPFL_RTES_CS476/Code/mini_project_v2/sw/mini_project_v3_bsp//libucosii_bsp.a(alt_tick.o)
 .data          0x0000000000019bc8        0x0 /home/nathan/Documents/Cours/EPFL_RTES_CS476/Code/mini_project_v2/sw/mini_project_v3_bsp//libucosii_bsp.a(altera_nios2_gen2_irq.o)
 .data          0x0000000000019bc8        0x0 /home/nathan/Documents/Cours/EPFL_RTES_CS476/Code/mini_project_v2/sw/mini_project_v3_bsp//libucosii_bsp.a(os_cpu_a.o)
 .data          0x0000000000019bc8        0x0 /home/nathan/Documents/Cours/EPFL_RTES_CS476/Code/mini_project_v2/sw/mini_project_v3_bsp//libucosii_bsp.a(os_cpu_c.o)
 .data          0x0000000000019bc8        0x0 /home/nathan/Documents/Cours/EPFL_RTES_CS476/Code/mini_project_v2/sw/mini_project_v3_bsp//libucosii_bsp.a(alt_exception_entry.o)
 .data          0x0000000000019bc8        0x0 /home/nathan/Documents/Cours/EPFL_RTES_CS476/Code/mini_project_v2/sw/mini_project_v3_bsp//libucosii_bsp.a(alt_find_dev.o)
 .data          0x0000000000019bc8        0x0 /home/nathan/Documents/Cours/EPFL_RTES_CS476/Code/mini_project_v2/sw/mini_project_v3_bsp//libucosii_bsp.a(alt_find_file.o)
 .data          0x0000000000019bc8        0x0 /home/nathan/Documents/Cours/EPFL_RTES_CS476/Code/mini_project_v2/sw/mini_project_v3_bsp//libucosii_bsp.a(alt_get_fd.o)
 .data          0x0000000000019bc8        0x0 /home/nathan/Documents/Cours/EPFL_RTES_CS476/Code/mini_project_v2/sw/mini_project_v3_bsp//libucosii_bsp.a(alt_instruction_exception_entry.o)
 .data          0x0000000000019bc8        0x0 /home/nathan/Documents/Misc/quartus-free/pkg/quartus-free/opt/altera/18.1/nios2eds/bin/gnu/H-x86_64-pc-linux-gnu/bin/../lib/gcc/nios2-elf/5.3.0/../../../../../H-x86_64-pc-linux-gnu/nios2-elf/lib/libc.a(lib_a-atexit.o)
 .data          0x0000000000019bc8        0x0 /home/nathan/Documents/Misc/quartus-free/pkg/quartus-free/opt/altera/18.1/nios2eds/bin/gnu/H-x86_64-pc-linux-gnu/bin/../lib/gcc/nios2-elf/5.3.0/../../../../../H-x86_64-pc-linux-gnu/nios2-elf/lib/libc.a(lib_a-exit.o)
 .data          0x0000000000019bc8        0x0 /home/nathan/Documents/Misc/quartus-free/pkg/quartus-free/opt/altera/18.1/nios2eds/bin/gnu/H-x86_64-pc-linux-gnu/bin/../lib/gcc/nios2-elf/5.3.0/../../../../../H-x86_64-pc-linux-gnu/nios2-elf/lib/libc.a(lib_a-memcmp.o)
 .data          0x0000000000019bc8        0x0 /home/nathan/Documents/Misc/quartus-free/pkg/quartus-free/opt/altera/18.1/nios2eds/bin/gnu/H-x86_64-pc-linux-gnu/bin/../lib/gcc/nios2-elf/5.3.0/../../../../../H-x86_64-pc-linux-gnu/nios2-elf/lib/libc.a(lib_a-__atexit.o)
 .data          0x0000000000019bc8        0x0 /home/nathan/Documents/Misc/quartus-free/pkg/quartus-free/opt/altera/18.1/nios2eds/bin/gnu/H-x86_64-pc-linux-gnu/bin/../lib/gcc/nios2-elf/5.3.0/../../../../../H-x86_64-pc-linux-gnu/nios2-elf/lib/libc.a(lib_a-__call_atexit.o)
 .data          0x0000000000019bc8        0x0 /home/nathan/Documents/Cours/EPFL_RTES_CS476/Code/mini_project_v2/sw/mini_project_v3_bsp//libucosii_bsp.a(alt_exit.o)
                0x0000000000021bc8                _gp = ABSOLUTE ((. + 0x8000))
                [!provide]                        PROVIDE (gp, _gp)
 *(.rwdata .rwdata.*)
 *(.sdata .sdata.* .gnu.linkonce.s.*)
 .sdata.__malloc_sbrk_base
                0x0000000000019bc8        0x4 /home/nathan/Documents/Misc/quartus-free/pkg/quartus-free/opt/altera/18.1/nios2eds/bin/gnu/H-x86_64-pc-linux-gnu/bin/../lib/gcc/nios2-elf/5.3.0/../../../../../H-x86_64-pc-linux-gnu/nios2-elf/lib/libc.a(lib_a-mallocr.o)
                0x0000000000019bc8                __malloc_sbrk_base
 .sdata.__malloc_trim_threshold
                0x0000000000019bcc        0x4 /home/nathan/Documents/Misc/quartus-free/pkg/quartus-free/opt/altera/18.1/nios2eds/bin/gnu/H-x86_64-pc-linux-gnu/bin/../lib/gcc/nios2-elf/5.3.0/../../../../../H-x86_64-pc-linux-gnu/nios2-elf/lib/libc.a(lib_a-mallocr.o)
                0x0000000000019bcc                __malloc_trim_threshold
 .sdata._global_impure_ptr
                0x0000000000019bd0        0x4 /home/nathan/Documents/Misc/quartus-free/pkg/quartus-free/opt/altera/18.1/nios2eds/bin/gnu/H-x86_64-pc-linux-gnu/bin/../lib/gcc/nios2-elf/5.3.0/../../../../../H-x86_64-pc-linux-gnu/nios2-elf/lib/libc.a(lib_a-impure.o)
                0x0000000000019bd0                _global_impure_ptr
 .sdata._impure_ptr
                0x0000000000019bd4        0x4 /home/nathan/Documents/Misc/quartus-free/pkg/quartus-free/opt/altera/18.1/nios2eds/bin/gnu/H-x86_64-pc-linux-gnu/bin/../lib/gcc/nios2-elf/5.3.0/../../../../../H-x86_64-pc-linux-gnu/nios2-elf/lib/libc.a(lib_a-impure.o)
                0x0000000000019bd4                _impure_ptr
 .sdata.__mb_cur_max
                0x0000000000019bd8        0x4 /home/nathan/Documents/Misc/quartus-free/pkg/quartus-free/opt/altera/18.1/nios2eds/bin/gnu/H-x86_64-pc-linux-gnu/bin/../lib/gcc/nios2-elf/5.3.0/../../../../../H-x86_64-pc-linux-gnu/nios2-elf/lib/libc.a(lib_a-locale.o)
                0x0000000000019bd8                __mb_cur_max
 .sdata.__wctomb
                0x0000000000019bdc        0x4 /home/nathan/Documents/Misc/quartus-free/pkg/quartus-free/opt/altera/18.1/nios2eds/bin/gnu/H-x86_64-pc-linux-gnu/bin/../lib/gcc/nios2-elf/5.3.0/../../../../../H-x86_64-pc-linux-gnu/nios2-elf/lib/libc.a(lib_a-wctomb_r.o)
                0x0000000000019bdc                __wctomb
 .sdata         0x0000000000019be0       0x14 /home/nathan/Documents/Cours/EPFL_RTES_CS476/Code/mini_project_v2/sw/mini_project_v3_bsp//libucosii_bsp.a(alt_dev.o)
                0x0000000000019be0                alt_fs_list
                0x0000000000019be8                alt_dev_list
                0x0000000000019bf0                alt_max_fd
 .sdata         0x0000000000019bf4        0x4 /home/nathan/Documents/Cours/EPFL_RTES_CS476/Code/mini_project_v2/sw/mini_project_v3_bsp//libucosii_bsp.a(alt_errno.o)
                0x0000000000019bf4                alt_errno
 .sdata         0x0000000000019bf8        0x4 /home/nathan/Documents/Cours/EPFL_RTES_CS476/Code/mini_project_v2/sw/mini_project_v3_bsp//libucosii_bsp.a(alt_sbrk.o)
 .sdata         0x0000000000019bfc        0x4 /home/nathan/Documents/Cours/EPFL_RTES_CS476/Code/mini_project_v2/sw/mini_project_v3_bsp//libucosii_bsp.a(alt_env_lock.o)
 .sdata         0x0000000000019c00        0x4 /home/nathan/Documents/Cours/EPFL_RTES_CS476/Code/mini_project_v2/sw/mini_project_v3_bsp//libucosii_bsp.a(alt_malloc_lock.o)
 .sdata         0x0000000000019c04       0x72 /home/nathan/Documents/Cours/EPFL_RTES_CS476/Code/mini_project_v2/sw/mini_project_v3_bsp//libucosii_bsp.a(os_dbg.o)
                0x0000000000019c04                OSDebugEn
                0x0000000000019c08                OSEndiannessTest
                0x0000000000019c0c                OSEventEn
                0x0000000000019c0e                OSEventMax
                0x0000000000019c10                OSEventNameSize
                0x0000000000019c12                OSEventSize
                0x0000000000019c14                OSEventTblSize
                0x0000000000019c16                OSEventMultiEn
                0x0000000000019c18                OSFlagEn
                0x0000000000019c1a                OSFlagGrpSize
                0x0000000000019c1c                OSFlagNodeSize
                0x0000000000019c1e                OSFlagWidth
                0x0000000000019c20                OSFlagMax
                0x0000000000019c22                OSFlagNameSize
                0x0000000000019c24                OSLowestPrio
                0x0000000000019c26                OSMboxEn
                0x0000000000019c28                OSMemEn
                0x0000000000019c2a                OSMemMax
                0x0000000000019c2c                OSMemNameSize
                0x0000000000019c2e                OSMemSize
                0x0000000000019c30                OSMemTblSize
                0x0000000000019c32                OSMutexEn
                0x0000000000019c34                OSPtrSize
                0x0000000000019c36                OSQEn
                0x0000000000019c38                OSQMax
                0x0000000000019c3a                OSQSize
                0x0000000000019c3c                OSRdyTblSize
                0x0000000000019c3e                OSSemEn
                0x0000000000019c40                OSStkWidth
                0x0000000000019c42                OSTaskCreateEn
                0x0000000000019c44                OSTaskCreateExtEn
                0x0000000000019c46                OSTaskDelEn
                0x0000000000019c48                OSTaskIdleStkSize
                0x0000000000019c4a                OSTaskProfileEn
                0x0000000000019c4c                OSTaskMax
                0x0000000000019c4e                OSTaskNameSize
                0x0000000000019c50                OSTaskStatEn
                0x0000000000019c52                OSTaskStatStkSize
                0x0000000000019c54                OSTaskStatStkChkEn
                0x0000000000019c56                OSTaskSwHookEn
                0x0000000000019c58                OSTCBPrioTblMax
                0x0000000000019c5a                OSTCBSize
                0x0000000000019c5c                OSTicksPerSec
                0x0000000000019c5e                OSTimeTickHookEn
                0x0000000000019c60                OSVersionNbr
                0x0000000000019c62                OSTmrEn
                0x0000000000019c64                OSTmrCfgMax
                0x0000000000019c66                OSTmrCfgNameSize
                0x0000000000019c68                OSTmrCfgWheelSize
                0x0000000000019c6a                OSTmrCfgTicksPerSec
                0x0000000000019c6c                OSTmrSize
                0x0000000000019c6e                OSTmrTblSize
                0x0000000000019c70                OSTmrWheelSize
                0x0000000000019c72                OSTmrWheelTblSize
                0x0000000000019c74                OSDataSize
 *fill*         0x0000000000019c76        0x2 
 .sdata         0x0000000000019c78        0x4 /home/nathan/Documents/Cours/EPFL_RTES_CS476/Code/mini_project_v2/sw/mini_project_v3_bsp//libucosii_bsp.a(alt_irq_vars.o)
                0x0000000000019c78                alt_priority_mask
 .sdata         0x0000000000019c7c        0x8 /home/nathan/Documents/Cours/EPFL_RTES_CS476/Code/mini_project_v2/sw/mini_project_v3_bsp//libucosii_bsp.a(alt_tick.o)
                0x0000000000019c7c                alt_alarm_list
 *(.sdata2 .sdata2.* .gnu.linkonce.s2.*)
                0x0000000000019c84                . = ALIGN (0x4)
                0x0000000000019c84                _edata = ABSOLUTE (.)
                [!provide]                        PROVIDE (edata, ABSOLUTE (.))
                0x0000000000019c84                PROVIDE (__ram_rwdata_end, ABSOLUTE (.))
                0x0000000000019c84                PROVIDE (__flash_rwdata_start, LOADADDR (.rwdata))

.bss            0x000000000001b7f8     0x63ec
                0x000000000001b7f8                __bss_start = ABSOLUTE (.)
                [!provide]                        PROVIDE (__sbss_start, ABSOLUTE (.))
                [!provide]                        PROVIDE (___sbss_start, ABSOLUTE (.))
 *(.dynsbss)
 *(.sbss .sbss.* .gnu.linkonce.sb.*)
 .sbss          0x000000000001b7f8        0x4 obj/default/mini_project_with_fake_camera.o
                0x000000000001b7f8                queue_res
 .sbss.__malloc_max_total_mem
                0x000000000001b7fc        0x4 /home/nathan/Documents/Misc/quartus-free/pkg/quartus-free/opt/altera/18.1/nios2eds/bin/gnu/H-x86_64-pc-linux-gnu/bin/../lib/gcc/nios2-elf/5.3.0/../../../../../H-x86_64-pc-linux-gnu/nios2-elf/lib/libc.a(lib_a-mallocr.o)
                0x000000000001b7fc                __malloc_max_total_mem
 .sbss.__malloc_max_sbrked_mem
                0x000000000001b800        0x4 /home/nathan/Documents/Misc/quartus-free/pkg/quartus-free/opt/altera/18.1/nios2eds/bin/gnu/H-x86_64-pc-linux-gnu/bin/../lib/gcc/nios2-elf/5.3.0/../../../../../H-x86_64-pc-linux-gnu/nios2-elf/lib/libc.a(lib_a-mallocr.o)
                0x000000000001b800                __malloc_max_sbrked_mem
 .sbss.__malloc_top_pad
                0x000000000001b804        0x4 /home/nathan/Documents/Misc/quartus-free/pkg/quartus-free/opt/altera/18.1/nios2eds/bin/gnu/H-x86_64-pc-linux-gnu/bin/../lib/gcc/nios2-elf/5.3.0/../../../../../H-x86_64-pc-linux-gnu/nios2-elf/lib/libc.a(lib_a-mallocr.o)
                0x000000000001b804                __malloc_top_pad
 .sbss          0x000000000001b808        0x4 /home/nathan/Documents/Misc/quartus-free/pkg/quartus-free/opt/altera/18.1/nios2eds/bin/gnu/H-x86_64-pc-linux-gnu/bin/../lib/gcc/nios2-elf/5.3.0/../../../../../H-x86_64-pc-linux-gnu/nios2-elf/lib/libc.a(lib_a-int_errno.o)
                0x000000000001b808                errno
 .sbss._PathLocale
                0x000000000001b80c        0x4 /home/nathan/Documents/Misc/quartus-free/pkg/quartus-free/opt/altera/18.1/nios2eds/bin/gnu/H-x86_64-pc-linux-gnu/bin/../lib/gcc/nios2-elf/5.3.0/../../../../../H-x86_64-pc-linux-gnu/nios2-elf/lib/libc.a(lib_a-locale.o)
                0x000000000001b80c                _PathLocale
 .sbss.__mlocale_changed
                0x000000000001b810        0x4 /home/nathan/Documents/Misc/quartus-free/pkg/quartus-free/opt/altera/18.1/nios2eds/bin/gnu/H-x86_64-pc-linux-gnu/bin/../lib/gcc/nios2-elf/5.3.0/../../../../../H-x86_64-pc-linux-gnu/nios2-elf/lib/libc.a(lib_a-locale.o)
                0x000000000001b810                __mlocale_changed
 .sbss.__nlocale_changed
                0x000000000001b814        0x4 /home/nathan/Documents/Misc/quartus-free/pkg/quartus-free/opt/altera/18.1/nios2eds/bin/gnu/H-x86_64-pc-linux-gnu/bin/../lib/gcc/nios2-elf/5.3.0/../../../../../H-x86_64-pc-linux-gnu/nios2-elf/lib/libc.a(lib_a-locale.o)
                0x000000000001b814                __nlocale_changed
 .sbss          0x000000000001b818        0x4 /home/nathan/Documents/Cours/EPFL_RTES_CS476/Code/mini_project_v2/sw/mini_project_v3_bsp//libucosii_bsp.a(alt_dev.o)
                0x000000000001b818                alt_fd_list_lock
 .sbss          0x000000000001b81c        0xc /home/nathan/Documents/Cours/EPFL_RTES_CS476/Code/mini_project_v2/sw/mini_project_v3_bsp//libucosii_bsp.a(alt_main.o)
                0x000000000001b81c                alt_argc
                0x000000000001b820                alt_argv
                0x000000000001b824                alt_envp
 .sbss          0x000000000001b828        0x8 /home/nathan/Documents/Cours/EPFL_RTES_CS476/Code/mini_project_v2/sw/mini_project_v3_bsp//libucosii_bsp.a(alt_env_lock.o)
                0x000000000001b82c                alt_envsem
 .sbss          0x000000000001b830        0x8 /home/nathan/Documents/Cours/EPFL_RTES_CS476/Code/mini_project_v2/sw/mini_project_v3_bsp//libucosii_bsp.a(alt_malloc_lock.o)
                0x000000000001b834                alt_heapsem
 .sbss          0x000000000001b838       0x50 /home/nathan/Documents/Cours/EPFL_RTES_CS476/Code/mini_project_v2/sw/mini_project_v3_bsp//libucosii_bsp.a(os_core.o)
                0x000000000001b838                OSLockNesting
                0x000000000001b839                OSRunning
                0x000000000001b83c                OSIdleCtr
                0x000000000001b840                OSPrioHighRdy
                0x000000000001b841                OSPrioCur
                0x000000000001b844                OSTCBList
                0x000000000001b848                OSTickStepState
                0x000000000001b84c                OSCtxSwCtr
                0x000000000001b850                OSIdleCtrMax
                0x000000000001b854                OSTCBFreeList
                0x000000000001b858                OSCPUUsage
                0x000000000001b859                OSTaskCtr
                0x000000000001b85c                OSMemFreeList
                0x000000000001b860                OSTCBHighRdy
                0x000000000001b864                OSQFreeList
                0x000000000001b868                OSRdyGrp
                0x000000000001b869                OSRdyTbl
                0x000000000001b86c                OSEventFreeList
                0x000000000001b870                OSIntNesting
                0x000000000001b874                OSTCBCur
                0x000000000001b878                OSTime
                0x000000000001b87c                OSFlagFreeList
                0x000000000001b880                OSStatRdy
                0x000000000001b884                OSIdleCtrRun
 .sbss          0x000000000001b888        0x4 /home/nathan/Documents/Cours/EPFL_RTES_CS476/Code/mini_project_v2/sw/mini_project_v3_bsp//libucosii_bsp.a(alt_irq_vars.o)
                0x000000000001b888                alt_irq_active
 .sbss          0x000000000001b88c        0x8 /home/nathan/Documents/Cours/EPFL_RTES_CS476/Code/mini_project_v2/sw/mini_project_v3_bsp//libucosii_bsp.a(alt_tick.o)
                0x000000000001b88c                _alt_tick_rate
                0x000000000001b890                _alt_nticks
 .sbss          0x000000000001b894        0x4 /home/nathan/Documents/Cours/EPFL_RTES_CS476/Code/mini_project_v2/sw/mini_project_v3_bsp//libucosii_bsp.a(alt_instruction_exception_entry.o)
                0x000000000001b894                alt_instruction_exception_handler
 *(.sbss2 .sbss2.* .gnu.linkonce.sb2.*)
 *(.scommon)
                [!provide]                        PROVIDE (__sbss_end, ABSOLUTE (.))
                [!provide]                        PROVIDE (___sbss_end, ABSOLUTE (.))
 *(.dynbss)
 *(.bss .bss.* .gnu.linkonce.b.*)
 .bss           0x000000000001b898        0x0 /home/nathan/Documents/Cours/EPFL_RTES_CS476/Code/mini_project_v2/sw/mini_project_v3_bsp//obj/HAL/src/crt0.o
 .bss           0x000000000001b898        0x0 obj/default/mini_project_with_fake_camera.o
 .bss           0x000000000001b898        0x0 /home/nathan/Documents/Misc/quartus-free/pkg/quartus-free/opt/altera/18.1/nios2eds/bin/gnu/H-x86_64-pc-linux-gnu/bin/../lib/gcc/nios2-elf/5.3.0/libgcc.a(lib2-divmod.o)
 .bss           0x000000000001b898        0x0 /home/nathan/Documents/Misc/quartus-free/pkg/quartus-free/opt/altera/18.1/nios2eds/bin/gnu/H-x86_64-pc-linux-gnu/bin/../lib/gcc/nios2-elf/5.3.0/../../../../../H-x86_64-pc-linux-gnu/nios2-elf/lib/libc.a(lib_a-malloc.o)
 .bss           0x000000000001b898        0x0 /home/nathan/Documents/Misc/quartus-free/pkg/quartus-free/opt/altera/18.1/nios2eds/bin/gnu/H-x86_64-pc-linux-gnu/bin/../lib/gcc/nios2-elf/5.3.0/../../../../../H-x86_64-pc-linux-gnu/nios2-elf/lib/libc.a(lib_a-mallocr.o)
 .bss.__malloc_current_mallinfo
                0x000000000001b898       0x28 /home/nathan/Documents/Misc/quartus-free/pkg/quartus-free/opt/altera/18.1/nios2eds/bin/gnu/H-x86_64-pc-linux-gnu/bin/../lib/gcc/nios2-elf/5.3.0/../../../../../H-x86_64-pc-linux-gnu/nios2-elf/lib/libc.a(lib_a-mallocr.o)
                0x000000000001b898                __malloc_current_mallinfo
 .bss           0x000000000001b8c0        0x0 /home/nathan/Documents/Misc/quartus-free/pkg/quartus-free/opt/altera/18.1/nios2eds/bin/gnu/H-x86_64-pc-linux-gnu/bin/../lib/gcc/nios2-elf/5.3.0/../../../../../H-x86_64-pc-linux-gnu/nios2-elf/lib/libc.a(lib_a-printf.o)
 .bss           0x000000000001b8c0        0x0 /home/nathan/Documents/Misc/quartus-free/pkg/quartus-free/opt/altera/18.1/nios2eds/bin/gnu/H-x86_64-pc-linux-gnu/bin/../lib/gcc/nios2-elf/5.3.0/../../../../../H-x86_64-pc-linux-gnu/nios2-elf/lib/libc.a(lib_a-puts.o)
 .bss           0x000000000001b8c0        0x0 /home/nathan/Documents/Misc/quartus-free/pkg/quartus-free/opt/altera/18.1/nios2eds/bin/gnu/H-x86_64-pc-linux-gnu/bin/../lib/gcc/nios2-elf/5.3.0/../../../../../H-x86_64-pc-linux-gnu/nios2-elf/lib/libc.a(lib_a-sbrkr.o)
 .bss           0x000000000001b8c0        0x0 /home/nathan/Documents/Misc/quartus-free/pkg/quartus-free/opt/altera/18.1/nios2eds/bin/gnu/H-x86_64-pc-linux-gnu/bin/../lib/gcc/nios2-elf/5.3.0/../../../../../H-x86_64-pc-linux-gnu/nios2-elf/lib/libc.a(lib_a-strlen.o)
 .bss           0x000000000001b8c0        0x0 /home/nathan/Documents/Misc/quartus-free/pkg/quartus-free/opt/altera/18.1/nios2eds/bin/gnu/H-x86_64-pc-linux-gnu/bin/../lib/gcc/nios2-elf/5.3.0/../../../../../H-x86_64-pc-linux-gnu/nios2-elf/lib/libc.a(lib_a-vfprintf.o)
 .bss           0x000000000001b8c0        0x0 /home/nathan/Documents/Misc/quartus-free/pkg/quartus-free/opt/altera/18.1/nios2eds/bin/gnu/H-x86_64-pc-linux-gnu/bin/../lib/gcc/nios2-elf/5.3.0/../../../../../H-x86_64-pc-linux-gnu/nios2-elf/lib/libc.a(lib_a-wsetup.o)
 .bss           0x000000000001b8c0        0x0 /home/nathan/Documents/Misc/quartus-free/pkg/quartus-free/opt/altera/18.1/nios2eds/bin/gnu/H-x86_64-pc-linux-gnu/bin/../lib/gcc/nios2-elf/5.3.0/../../../../../H-x86_64-pc-linux-gnu/nios2-elf/lib/libc.a(lib_a-dtoa.o)
 .bss           0x000000000001b8c0        0x0 /home/nathan/Documents/Misc/quartus-free/pkg/quartus-free/opt/altera/18.1/nios2eds/bin/gnu/H-x86_64-pc-linux-gnu/bin/../lib/gcc/nios2-elf/5.3.0/../../../../../H-x86_64-pc-linux-gnu/nios2-elf/lib/libc.a(lib_a-fflush.o)
 .bss           0x000000000001b8c0        0x0 /home/nathan/Documents/Misc/quartus-free/pkg/quartus-free/opt/altera/18.1/nios2eds/bin/gnu/H-x86_64-pc-linux-gnu/bin/../lib/gcc/nios2-elf/5.3.0/../../../../../H-x86_64-pc-linux-gnu/nios2-elf/lib/libc.a(lib_a-findfp.o)
 .bss           0x000000000001b8c0        0x0 /home/nathan/Documents/Misc/quartus-free/pkg/quartus-free/opt/altera/18.1/nios2eds/bin/gnu/H-x86_64-pc-linux-gnu/bin/../lib/gcc/nios2-elf/5.3.0/../../../../../H-x86_64-pc-linux-gnu/nios2-elf/lib/libc.a(lib_a-freer.o)
 .bss           0x000000000001b8c0        0x0 /home/nathan/Documents/Misc/quartus-free/pkg/quartus-free/opt/altera/18.1/nios2eds/bin/gnu/H-x86_64-pc-linux-gnu/bin/../lib/gcc/nios2-elf/5.3.0/../../../../../H-x86_64-pc-linux-gnu/nios2-elf/lib/libc.a(lib_a-fvwrite.o)
 .bss           0x000000000001b8c0        0x0 /home/nathan/Documents/Misc/quartus-free/pkg/quartus-free/opt/altera/18.1/nios2eds/bin/gnu/H-x86_64-pc-linux-gnu/bin/../lib/gcc/nios2-elf/5.3.0/../../../../../H-x86_64-pc-linux-gnu/nios2-elf/lib/libc.a(lib_a-fwalk.o)
 .bss           0x000000000001b8c0        0x0 /home/nathan/Documents/Misc/quartus-free/pkg/quartus-free/opt/altera/18.1/nios2eds/bin/gnu/H-x86_64-pc-linux-gnu/bin/../lib/gcc/nios2-elf/5.3.0/../../../../../H-x86_64-pc-linux-gnu/nios2-elf/lib/libc.a(lib_a-impure.o)
 .bss           0x000000000001b8c0        0x0 /home/nathan/Documents/Misc/quartus-free/pkg/quartus-free/opt/altera/18.1/nios2eds/bin/gnu/H-x86_64-pc-linux-gnu/bin/../lib/gcc/nios2-elf/5.3.0/../../../../../H-x86_64-pc-linux-gnu/nios2-elf/lib/libc.a(lib_a-int_errno.o)
 .bss           0x000000000001b8c0        0x0 /home/nathan/Documents/Misc/quartus-free/pkg/quartus-free/opt/altera/18.1/nios2eds/bin/gnu/H-x86_64-pc-linux-gnu/bin/../lib/gcc/nios2-elf/5.3.0/../../../../../H-x86_64-pc-linux-gnu/nios2-elf/lib/libc.a(lib_a-locale.o)
 .bss           0x000000000001b8c0        0x0 /home/nathan/Documents/Misc/quartus-free/pkg/quartus-free/opt/altera/18.1/nios2eds/bin/gnu/H-x86_64-pc-linux-gnu/bin/../lib/gcc/nios2-elf/5.3.0/../../../../../H-x86_64-pc-linux-gnu/nios2-elf/lib/libc.a(lib_a-makebuf.o)
 .bss           0x000000000001b8c0        0x0 /home/nathan/Documents/Misc/quartus-free/pkg/quartus-free/opt/altera/18.1/nios2eds/bin/gnu/H-x86_64-pc-linux-gnu/bin/../lib/gcc/nios2-elf/5.3.0/../../../../../H-x86_64-pc-linux-gnu/nios2-elf/lib/libc.a(lib_a-memchr.o)
 .bss           0x000000000001b8c0        0x0 /home/nathan/Documents/Misc/quartus-free/pkg/quartus-free/opt/altera/18.1/nios2eds/bin/gnu/H-x86_64-pc-linux-gnu/bin/../lib/gcc/nios2-elf/5.3.0/../../../../../H-x86_64-pc-linux-gnu/nios2-elf/lib/libc.a(lib_a-memcpy.o)
 .bss           0x000000000001b8c0        0x0 /home/nathan/Documents/Misc/quartus-free/pkg/quartus-free/opt/altera/18.1/nios2eds/bin/gnu/H-x86_64-pc-linux-gnu/bin/../lib/gcc/nios2-elf/5.3.0/../../../../../H-x86_64-pc-linux-gnu/nios2-elf/lib/libc.a(lib_a-memmove.o)
 .bss           0x000000000001b8c0        0x0 /home/nathan/Documents/Misc/quartus-free/pkg/quartus-free/opt/altera/18.1/nios2eds/bin/gnu/H-x86_64-pc-linux-gnu/bin/../lib/gcc/nios2-elf/5.3.0/../../../../../H-x86_64-pc-linux-gnu/nios2-elf/lib/libc.a(lib_a-memset.o)
 .bss           0x000000000001b8c0        0x0 /home/nathan/Documents/Misc/quartus-free/pkg/quartus-free/opt/altera/18.1/nios2eds/bin/gnu/H-x86_64-pc-linux-gnu/bin/../lib/gcc/nios2-elf/5.3.0/../../../../../H-x86_64-pc-linux-gnu/nios2-elf/lib/libc.a(lib_a-mprec.o)
 .bss           0x000000000001b8c0        0x0 /home/nathan/Documents/Misc/quartus-free/pkg/quartus-free/opt/altera/18.1/nios2eds/bin/gnu/H-x86_64-pc-linux-gnu/bin/../lib/gcc/nios2-elf/5.3.0/../../../../../H-x86_64-pc-linux-gnu/nios2-elf/lib/libc.a(lib_a-reallocr.o)
 .bss           0x000000000001b8c0        0x0 /home/nathan/Documents/Misc/quartus-free/pkg/quartus-free/opt/altera/18.1/nios2eds/bin/gnu/H-x86_64-pc-linux-gnu/bin/../lib/gcc/nios2-elf/5.3.0/../../../../../H-x86_64-pc-linux-gnu/nios2-elf/lib/libc.a(lib_a-s_fpclassify.o)
 .bss           0x000000000001b8c0        0x0 /home/nathan/Documents/Misc/quartus-free/pkg/quartus-free/opt/altera/18.1/nios2eds/bin/gnu/H-x86_64-pc-linux-gnu/bin/../lib/gcc/nios2-elf/5.3.0/../../../../../H-x86_64-pc-linux-gnu/nios2-elf/lib/libc.a(lib_a-stdio.o)
 .bss           0x000000000001b8c0        0x0 /home/nathan/Documents/Misc/quartus-free/pkg/quartus-free/opt/altera/18.1/nios2eds/bin/gnu/H-x86_64-pc-linux-gnu/bin/../lib/gcc/nios2-elf/5.3.0/../../../../../H-x86_64-pc-linux-gnu/nios2-elf/lib/libc.a(lib_a-strcmp.o)
 .bss           0x000000000001b8c0        0x0 /home/nathan/Documents/Misc/quartus-free/pkg/quartus-free/opt/altera/18.1/nios2eds/bin/gnu/H-x86_64-pc-linux-gnu/bin/../lib/gcc/nios2-elf/5.3.0/../../../../../H-x86_64-pc-linux-gnu/nios2-elf/lib/libc.a(lib_a-vfiprintf.o)
 .bss           0x000000000001b8c0        0x0 /home/nathan/Documents/Misc/quartus-free/pkg/quartus-free/opt/altera/18.1/nios2eds/bin/gnu/H-x86_64-pc-linux-gnu/bin/../lib/gcc/nios2-elf/5.3.0/../../../../../H-x86_64-pc-linux-gnu/nios2-elf/lib/libc.a(lib_a-writer.o)
 .bss           0x000000000001b8c0        0x0 /home/nathan/Documents/Misc/quartus-free/pkg/quartus-free/opt/altera/18.1/nios2eds/bin/gnu/H-x86_64-pc-linux-gnu/bin/../lib/gcc/nios2-elf/5.3.0/../../../../../H-x86_64-pc-linux-gnu/nios2-elf/lib/libc.a(closer.o)
 .bss           0x000000000001b8c0        0x0 /home/nathan/Documents/Misc/quartus-free/pkg/quartus-free/opt/altera/18.1/nios2eds/bin/gnu/H-x86_64-pc-linux-gnu/bin/../lib/gcc/nios2-elf/5.3.0/../../../../../H-x86_64-pc-linux-gnu/nios2-elf/lib/libc.a(lib_a-callocr.o)
 .bss           0x000000000001b8c0        0x0 /home/nathan/Documents/Misc/quartus-free/pkg/quartus-free/opt/altera/18.1/nios2eds/bin/gnu/H-x86_64-pc-linux-gnu/bin/../lib/gcc/nios2-elf/5.3.0/../../../../../H-x86_64-pc-linux-gnu/nios2-elf/lib/libc.a(lib_a-fclose.o)
 .bss           0x000000000001b8c0        0x0 /home/nathan/Documents/Misc/quartus-free/pkg/quartus-free/opt/altera/18.1/nios2eds/bin/gnu/H-x86_64-pc-linux-gnu/bin/../lib/gcc/nios2-elf/5.3.0/../../../../../H-x86_64-pc-linux-gnu/nios2-elf/lib/libc.a(lib_a-fputwc.o)
 .bss           0x000000000001b8c0        0x0 /home/nathan/Documents/Misc/quartus-free/pkg/quartus-free/opt/altera/18.1/nios2eds/bin/gnu/H-x86_64-pc-linux-gnu/bin/../lib/gcc/nios2-elf/5.3.0/../../../../../H-x86_64-pc-linux-gnu/nios2-elf/lib/libc.a(lib_a-fstatr.o)
 .bss           0x000000000001b8c0        0x0 /home/nathan/Documents/Misc/quartus-free/pkg/quartus-free/opt/altera/18.1/nios2eds/bin/gnu/H-x86_64-pc-linux-gnu/bin/../lib/gcc/nios2-elf/5.3.0/../../../../../H-x86_64-pc-linux-gnu/nios2-elf/lib/libc.a(lib_a-isattyr.o)
 .bss           0x000000000001b8c0        0x0 /home/nathan/Documents/Misc/quartus-free/pkg/quartus-free/opt/altera/18.1/nios2eds/bin/gnu/H-x86_64-pc-linux-gnu/bin/../lib/gcc/nios2-elf/5.3.0/../../../../../H-x86_64-pc-linux-gnu/nios2-elf/lib/libc.a(lib_a-lseekr.o)
 .bss           0x000000000001b8c0        0x0 /home/nathan/Documents/Misc/quartus-free/pkg/quartus-free/opt/altera/18.1/nios2eds/bin/gnu/H-x86_64-pc-linux-gnu/bin/../lib/gcc/nios2-elf/5.3.0/../../../../../H-x86_64-pc-linux-gnu/nios2-elf/lib/libc.a(lib_a-readr.o)
 .bss           0x000000000001b8c0        0x0 /home/nathan/Documents/Misc/quartus-free/pkg/quartus-free/opt/altera/18.1/nios2eds/bin/gnu/H-x86_64-pc-linux-gnu/bin/../lib/gcc/nios2-elf/5.3.0/../../../../../H-x86_64-pc-linux-gnu/nios2-elf/lib/libc.a(lib_a-wbuf.o)
 .bss           0x000000000001b8c0        0x0 /home/nathan/Documents/Misc/quartus-free/pkg/quartus-free/opt/altera/18.1/nios2eds/bin/gnu/H-x86_64-pc-linux-gnu/bin/../lib/gcc/nios2-elf/5.3.0/../../../../../H-x86_64-pc-linux-gnu/nios2-elf/lib/libc.a(lib_a-wcrtomb.o)
 .bss           0x000000000001b8c0        0x0 /home/nathan/Documents/Misc/quartus-free/pkg/quartus-free/opt/altera/18.1/nios2eds/bin/gnu/H-x86_64-pc-linux-gnu/bin/../lib/gcc/nios2-elf/5.3.0/../../../../../H-x86_64-pc-linux-gnu/nios2-elf/lib/libc.a(lib_a-wctomb_r.o)
 .bss           0x000000000001b8c0        0x0 /home/nathan/Documents/Misc/quartus-free/pkg/quartus-free/opt/altera/18.1/nios2eds/bin/gnu/H-x86_64-pc-linux-gnu/bin/../lib/gcc/nios2-elf/5.3.0/libgcc.a(_udivdi3.o)
 .bss           0x000000000001b8c0        0x0 /home/nathan/Documents/Misc/quartus-free/pkg/quartus-free/opt/altera/18.1/nios2eds/bin/gnu/H-x86_64-pc-linux-gnu/bin/../lib/gcc/nios2-elf/5.3.0/libgcc.a(_umoddi3.o)
 .bss           0x000000000001b8c0        0x0 /home/nathan/Documents/Misc/quartus-free/pkg/quartus-free/opt/altera/18.1/nios2eds/bin/gnu/H-x86_64-pc-linux-gnu/bin/../lib/gcc/nios2-elf/5.3.0/libgcc.a(adddf3.o)
 .bss           0x000000000001b8c0        0x0 /home/nathan/Documents/Misc/quartus-free/pkg/quartus-free/opt/altera/18.1/nios2eds/bin/gnu/H-x86_64-pc-linux-gnu/bin/../lib/gcc/nios2-elf/5.3.0/libgcc.a(divdf3.o)
 .bss           0x000000000001b8c0        0x0 /home/nathan/Documents/Misc/quartus-free/pkg/quartus-free/opt/altera/18.1/nios2eds/bin/gnu/H-x86_64-pc-linux-gnu/bin/../lib/gcc/nios2-elf/5.3.0/libgcc.a(eqdf2.o)
 .bss           0x000000000001b8c0        0x0 /home/nathan/Documents/Misc/quartus-free/pkg/quartus-free/opt/altera/18.1/nios2eds/bin/gnu/H-x86_64-pc-linux-gnu/bin/../lib/gcc/nios2-elf/5.3.0/libgcc.a(gedf2.o)
 .bss           0x000000000001b8c0        0x0 /home/nathan/Documents/Misc/quartus-free/pkg/quartus-free/opt/altera/18.1/nios2eds/bin/gnu/H-x86_64-pc-linux-gnu/bin/../lib/gcc/nios2-elf/5.3.0/libgcc.a(ledf2.o)
 .bss           0x000000000001b8c0        0x0 /home/nathan/Documents/Misc/quartus-free/pkg/quartus-free/opt/altera/18.1/nios2eds/bin/gnu/H-x86_64-pc-linux-gnu/bin/../lib/gcc/nios2-elf/5.3.0/libgcc.a(muldf3.o)
 .bss           0x000000000001b8c0        0x0 /home/nathan/Documents/Misc/quartus-free/pkg/quartus-free/opt/altera/18.1/nios2eds/bin/gnu/H-x86_64-pc-linux-gnu/bin/../lib/gcc/nios2-elf/5.3.0/libgcc.a(subdf3.o)
 .bss           0x000000000001b8c0        0x0 /home/nathan/Documents/Misc/quartus-free/pkg/quartus-free/opt/altera/18.1/nios2eds/bin/gnu/H-x86_64-pc-linux-gnu/bin/../lib/gcc/nios2-elf/5.3.0/libgcc.a(fixdfsi.o)
 .bss           0x000000000001b8c0        0x0 /home/nathan/Documents/Misc/quartus-free/pkg/quartus-free/opt/altera/18.1/nios2eds/bin/gnu/H-x86_64-pc-linux-gnu/bin/../lib/gcc/nios2-elf/5.3.0/libgcc.a(floatsidf.o)
 .bss           0x000000000001b8c0        0x0 /home/nathan/Documents/Misc/quartus-free/pkg/quartus-free/opt/altera/18.1/nios2eds/bin/gnu/H-x86_64-pc-linux-gnu/bin/../lib/gcc/nios2-elf/5.3.0/libgcc.a(floatunsidf.o)
 .bss           0x000000000001b8c0        0x0 /home/nathan/Documents/Misc/quartus-free/pkg/quartus-free/opt/altera/18.1/nios2eds/bin/gnu/H-x86_64-pc-linux-gnu/bin/../lib/gcc/nios2-elf/5.3.0/libgcc.a(_clz.o)
 .bss           0x000000000001b8c0        0x0 /home/nathan/Documents/Misc/quartus-free/pkg/quartus-free/opt/altera/18.1/nios2eds/bin/gnu/H-x86_64-pc-linux-gnu/bin/../lib/gcc/nios2-elf/5.3.0/libgcc.a(_clzsi2.o)
 .bss           0x000000000001b8c0        0x0 /home/nathan/Documents/Cours/EPFL_RTES_CS476/Code/mini_project_v2/sw/mini_project_v3_bsp//libucosii_bsp.a(alt_close.o)
 .bss           0x000000000001b8c0        0x0 /home/nathan/Documents/Cours/EPFL_RTES_CS476/Code/mini_project_v2/sw/mini_project_v3_bsp//libucosii_bsp.a(alt_dev.o)
 .bss           0x000000000001b8c0        0x0 /home/nathan/Documents/Cours/EPFL_RTES_CS476/Code/mini_project_v2/sw/mini_project_v3_bsp//libucosii_bsp.a(alt_errno.o)
 .bss           0x000000000001b8c0        0x0 /home/nathan/Documents/Cours/EPFL_RTES_CS476/Code/mini_project_v2/sw/mini_project_v3_bsp//libucosii_bsp.a(alt_fstat.o)
 .bss           0x000000000001b8c0        0x0 /home/nathan/Documents/Cours/EPFL_RTES_CS476/Code/mini_project_v2/sw/mini_project_v3_bsp//libucosii_bsp.a(alt_isatty.o)
 .bss           0x000000000001b8c0        0x0 /home/nathan/Documents/Cours/EPFL_RTES_CS476/Code/mini_project_v2/sw/mini_project_v3_bsp//libucosii_bsp.a(alt_load.o)
 .bss           0x000000000001b8c0        0x0 /home/nathan/Documents/Cours/EPFL_RTES_CS476/Code/mini_project_v2/sw/mini_project_v3_bsp//libucosii_bsp.a(alt_lseek.o)
 .bss           0x000000000001b8c0        0x0 /home/nathan/Documents/Cours/EPFL_RTES_CS476/Code/mini_project_v2/sw/mini_project_v3_bsp//libucosii_bsp.a(alt_main.o)
 .bss           0x000000000001b8c0        0x0 /home/nathan/Documents/Cours/EPFL_RTES_CS476/Code/mini_project_v2/sw/mini_project_v3_bsp//libucosii_bsp.a(alt_read.o)
 .bss           0x000000000001b8c0        0x0 /home/nathan/Documents/Cours/EPFL_RTES_CS476/Code/mini_project_v2/sw/mini_project_v3_bsp//libucosii_bsp.a(alt_release_fd.o)
 .bss           0x000000000001b8c0        0x0 /home/nathan/Documents/Cours/EPFL_RTES_CS476/Code/mini_project_v2/sw/mini_project_v3_bsp//libucosii_bsp.a(alt_sbrk.o)
 .bss           0x000000000001b8c0        0x0 /home/nathan/Documents/Cours/EPFL_RTES_CS476/Code/mini_project_v2/sw/mini_project_v3_bsp//libucosii_bsp.a(alt_write.o)
 .bss           0x000000000001b8c0        0x0 /home/nathan/Documents/Cours/EPFL_RTES_CS476/Code/mini_project_v2/sw/mini_project_v3_bsp//libucosii_bsp.a(alt_env_lock.o)
 .bss           0x000000000001b8c0        0x0 /home/nathan/Documents/Cours/EPFL_RTES_CS476/Code/mini_project_v2/sw/mini_project_v3_bsp//libucosii_bsp.a(alt_malloc_lock.o)
 .bss           0x000000000001b8c0        0x0 /home/nathan/Documents/Cours/EPFL_RTES_CS476/Code/mini_project_v2/sw/mini_project_v3_bsp//libucosii_bsp.a(os_core.o)
 .bss           0x000000000001b8c0        0x0 /home/nathan/Documents/Cours/EPFL_RTES_CS476/Code/mini_project_v2/sw/mini_project_v3_bsp//libucosii_bsp.a(os_dbg.o)
 .bss           0x000000000001b8c0        0x0 /home/nathan/Documents/Cours/EPFL_RTES_CS476/Code/mini_project_v2/sw/mini_project_v3_bsp//libucosii_bsp.a(os_flag.o)
 .bss           0x000000000001b8c0        0x0 /home/nathan/Documents/Cours/EPFL_RTES_CS476/Code/mini_project_v2/sw/mini_project_v3_bsp//libucosii_bsp.a(os_mem.o)
 .bss           0x000000000001b8c0        0x0 /home/nathan/Documents/Cours/EPFL_RTES_CS476/Code/mini_project_v2/sw/mini_project_v3_bsp//libucosii_bsp.a(os_q.o)
 .bss           0x000000000001b8c0        0x0 /home/nathan/Documents/Cours/EPFL_RTES_CS476/Code/mini_project_v2/sw/mini_project_v3_bsp//libucosii_bsp.a(os_sem.o)
 .bss           0x000000000001b8c0        0x0 /home/nathan/Documents/Cours/EPFL_RTES_CS476/Code/mini_project_v2/sw/mini_project_v3_bsp//libucosii_bsp.a(os_task.o)
 .bss           0x000000000001b8c0        0x0 /home/nathan/Documents/Cours/EPFL_RTES_CS476/Code/mini_project_v2/sw/mini_project_v3_bsp//libucosii_bsp.a(os_time.o)
 .bss           0x000000000001b8c0        0x0 /home/nathan/Documents/Cours/EPFL_RTES_CS476/Code/mini_project_v2/sw/mini_project_v3_bsp//libucosii_bsp.a(alt_sys_init.o)
 .bss           0x000000000001b8c0        0x0 /home/nathan/Documents/Cours/EPFL_RTES_CS476/Code/mini_project_v2/sw/mini_project_v3_bsp//libucosii_bsp.a(altera_avalon_jtag_uart_fd.o)
 .bss           0x000000000001b8c0        0x0 /home/nathan/Documents/Cours/EPFL_RTES_CS476/Code/mini_project_v2/sw/mini_project_v3_bsp//libucosii_bsp.a(altera_avalon_jtag_uart_init.o)
 .bss           0x000000000001b8c0        0x0 /home/nathan/Documents/Cours/EPFL_RTES_CS476/Code/mini_project_v2/sw/mini_project_v3_bsp//libucosii_bsp.a(altera_avalon_jtag_uart_ioctl.o)
 .bss           0x000000000001b8c0        0x0 /home/nathan/Documents/Cours/EPFL_RTES_CS476/Code/mini_project_v2/sw/mini_project_v3_bsp//libucosii_bsp.a(altera_avalon_jtag_uart_read.o)
 .bss           0x000000000001b8c0        0x0 /home/nathan/Documents/Cours/EPFL_RTES_CS476/Code/mini_project_v2/sw/mini_project_v3_bsp//libucosii_bsp.a(altera_avalon_jtag_uart_write.o)
 .bss           0x000000000001b8c0        0x0 /home/nathan/Documents/Cours/EPFL_RTES_CS476/Code/mini_project_v2/sw/mini_project_v3_bsp//libucosii_bsp.a(altera_avalon_timer_sc.o)
 .bss           0x000000000001b8c0        0x0 /home/nathan/Documents/Cours/EPFL_RTES_CS476/Code/mini_project_v2/sw/mini_project_v3_bsp//libucosii_bsp.a(alt_alarm_start.o)
 .bss           0x000000000001b8c0        0x0 /home/nathan/Documents/Cours/EPFL_RTES_CS476/Code/mini_project_v2/sw/mini_project_v3_bsp//libucosii_bsp.a(alt_dcache_flush_all.o)
 .bss           0x000000000001b8c0        0x0 /home/nathan/Documents/Cours/EPFL_RTES_CS476/Code/mini_project_v2/sw/mini_project_v3_bsp//libucosii_bsp.a(alt_dev_llist_insert.o)
 .bss           0x000000000001b8c0        0x0 /home/nathan/Documents/Cours/EPFL_RTES_CS476/Code/mini_project_v2/sw/mini_project_v3_bsp//libucosii_bsp.a(alt_do_ctors.o)
 .bss           0x000000000001b8c0        0x0 /home/nathan/Documents/Cours/EPFL_RTES_CS476/Code/mini_project_v2/sw/mini_project_v3_bsp//libucosii_bsp.a(alt_do_dtors.o)
 .bss           0x000000000001b8c0        0x0 /home/nathan/Documents/Cours/EPFL_RTES_CS476/Code/mini_project_v2/sw/mini_project_v3_bsp//libucosii_bsp.a(alt_icache_flush_all.o)
 .bss           0x000000000001b8c0        0x0 /home/nathan/Documents/Cours/EPFL_RTES_CS476/Code/mini_project_v2/sw/mini_project_v3_bsp//libucosii_bsp.a(alt_iic.o)
 .bss           0x000000000001b8c0        0x0 /home/nathan/Documents/Cours/EPFL_RTES_CS476/Code/mini_project_v2/sw/mini_project_v3_bsp//libucosii_bsp.a(alt_iic_isr_register.o)
 .bss           0x000000000001b8c0        0x0 /home/nathan/Documents/Cours/EPFL_RTES_CS476/Code/mini_project_v2/sw/mini_project_v3_bsp//libucosii_bsp.a(alt_io_redirect.o)
 .bss           0x000000000001b8c0        0x0 /home/nathan/Documents/Cours/EPFL_RTES_CS476/Code/mini_project_v2/sw/mini_project_v3_bsp//libucosii_bsp.a(alt_irq_entry.o)
 .bss           0x000000000001b8c0        0x0 /home/nathan/Documents/Cours/EPFL_RTES_CS476/Code/mini_project_v2/sw/mini_project_v3_bsp//libucosii_bsp.a(alt_irq_handler.o)
 .bss           0x000000000001b8c0        0x0 /home/nathan/Documents/Cours/EPFL_RTES_CS476/Code/mini_project_v2/sw/mini_project_v3_bsp//libucosii_bsp.a(alt_irq_vars.o)
 .bss           0x000000000001b8c0        0x0 /home/nathan/Documents/Cours/EPFL_RTES_CS476/Code/mini_project_v2/sw/mini_project_v3_bsp//libucosii_bsp.a(alt_open.o)
 .bss           0x000000000001b8c0        0x0 /home/nathan/Documents/Cours/EPFL_RTES_CS476/Code/mini_project_v2/sw/mini_project_v3_bsp//libucosii_bsp.a(alt_tick.o)
 .bss           0x000000000001b8c0        0x0 /home/nathan/Documents/Cours/EPFL_RTES_CS476/Code/mini_project_v2/sw/mini_project_v3_bsp//libucosii_bsp.a(altera_nios2_gen2_irq.o)
 .bss           0x000000000001b8c0        0x0 /home/nathan/Documents/Cours/EPFL_RTES_CS476/Code/mini_project_v2/sw/mini_project_v3_bsp//libucosii_bsp.a(os_cpu_a.o)
 .bss           0x000000000001b8c0        0x0 /home/nathan/Documents/Cours/EPFL_RTES_CS476/Code/mini_project_v2/sw/mini_project_v3_bsp//libucosii_bsp.a(os_cpu_c.o)
 .bss           0x000000000001b8c0        0x0 /home/nathan/Documents/Cours/EPFL_RTES_CS476/Code/mini_project_v2/sw/mini_project_v3_bsp//libucosii_bsp.a(alt_exception_entry.o)
 .bss           0x000000000001b8c0        0x0 /home/nathan/Documents/Cours/EPFL_RTES_CS476/Code/mini_project_v2/sw/mini_project_v3_bsp//libucosii_bsp.a(alt_find_dev.o)
 .bss           0x000000000001b8c0        0x0 /home/nathan/Documents/Cours/EPFL_RTES_CS476/Code/mini_project_v2/sw/mini_project_v3_bsp//libucosii_bsp.a(alt_find_file.o)
 .bss           0x000000000001b8c0        0x0 /home/nathan/Documents/Cours/EPFL_RTES_CS476/Code/mini_project_v2/sw/mini_project_v3_bsp//libucosii_bsp.a(alt_get_fd.o)
 .bss           0x000000000001b8c0        0x0 /home/nathan/Documents/Cours/EPFL_RTES_CS476/Code/mini_project_v2/sw/mini_project_v3_bsp//libucosii_bsp.a(alt_instruction_exception_entry.o)
 .bss           0x000000000001b8c0        0x0 /home/nathan/Documents/Misc/quartus-free/pkg/quartus-free/opt/altera/18.1/nios2eds/bin/gnu/H-x86_64-pc-linux-gnu/bin/../lib/gcc/nios2-elf/5.3.0/../../../../../H-x86_64-pc-linux-gnu/nios2-elf/lib/libc.a(lib_a-atexit.o)
 .bss           0x000000000001b8c0        0x0 /home/nathan/Documents/Misc/quartus-free/pkg/quartus-free/opt/altera/18.1/nios2eds/bin/gnu/H-x86_64-pc-linux-gnu/bin/../lib/gcc/nios2-elf/5.3.0/../../../../../H-x86_64-pc-linux-gnu/nios2-elf/lib/libc.a(lib_a-exit.o)
 .bss           0x000000000001b8c0        0x0 /home/nathan/Documents/Misc/quartus-free/pkg/quartus-free/opt/altera/18.1/nios2eds/bin/gnu/H-x86_64-pc-linux-gnu/bin/../lib/gcc/nios2-elf/5.3.0/../../../../../H-x86_64-pc-linux-gnu/nios2-elf/lib/libc.a(lib_a-memcmp.o)
 .bss           0x000000000001b8c0        0x0 /home/nathan/Documents/Misc/quartus-free/pkg/quartus-free/opt/altera/18.1/nios2eds/bin/gnu/H-x86_64-pc-linux-gnu/bin/../lib/gcc/nios2-elf/5.3.0/../../../../../H-x86_64-pc-linux-gnu/nios2-elf/lib/libc.a(lib_a-__atexit.o)
 .bss           0x000000000001b8c0        0x0 /home/nathan/Documents/Misc/quartus-free/pkg/quartus-free/opt/altera/18.1/nios2eds/bin/gnu/H-x86_64-pc-linux-gnu/bin/../lib/gcc/nios2-elf/5.3.0/../../../../../H-x86_64-pc-linux-gnu/nios2-elf/lib/libc.a(lib_a-__call_atexit.o)
 .bss           0x000000000001b8c0        0x0 /home/nathan/Documents/Cours/EPFL_RTES_CS476/Code/mini_project_v2/sw/mini_project_v3_bsp//libucosii_bsp.a(alt_exit.o)
 *(COMMON)
 COMMON         0x000000000001b8c0     0x3000 obj/default/mini_project_with_fake_camera.o
                0x000000000001b8c0                task1_stk
                0x000000000001c8c0                msg_queue
                0x000000000001d8c0                task2_stk
 COMMON         0x000000000001e8c0     0x3224 /home/nathan/Documents/Cours/EPFL_RTES_CS476/Code/mini_project_v2/sw/mini_project_v3_bsp//libucosii_bsp.a(os_core.o)
                0x000000000001e8c0                OSFlagTbl
                0x000000000001ec30                OSMemTbl
                0x000000000001f860                OSTaskStatStk
                0x0000000000020060                OSQTbl
                0x0000000000020240                OSTaskIdleStk
                0x0000000000020a40                OSEventTbl
                0x0000000000021580                OSTCBTbl
                0x0000000000021a90                OSTCBPrioTbl
 COMMON         0x0000000000021ae4      0x100 /home/nathan/Documents/Cours/EPFL_RTES_CS476/Code/mini_project_v2/sw/mini_project_v3_bsp//libucosii_bsp.a(alt_irq_handler.o)
                0x0000000000021ae4                alt_irq
                0x0000000000021be4                . = ALIGN (0x4)
                0x0000000000021be4                __bss_end = ABSOLUTE (.)

.sdram_controller_0
                0x0000000000021be4        0x0
                [!provide]                        PROVIDE (_alt_partition_sdram_controller_0_start, ABSOLUTE (.))
 *(.sdram_controller_0 .sdram_controller_0. sdram_controller_0.*)
                0x0000000000021be4                . = ALIGN (0x4)
                [!provide]                        PROVIDE (_alt_partition_sdram_controller_0_end, ABSOLUTE (.))
                0x0000000000021be4                _end = ABSOLUTE (.)
                0x0000000000021be4                end = ABSOLUTE (.)
                0x0000000000021be4                __alt_stack_base = ABSOLUTE (.)
                [!provide]                        PROVIDE (_alt_partition_sdram_controller_0_load_addr, LOADADDR (.sdram_controller_0))

.stab
 *(.stab)

.stabstr
 *(.stabstr)

.stab.excl
 *(.stab.excl)

.stab.exclstr
 *(.stab.exclstr)

.stab.index
 *(.stab.index)

.stab.indexstr
 *(.stab.indexstr)

.comment        0x0000000000000000       0x23
 *(.comment)
 .comment       0x0000000000000000       0x23 obj/default/mini_project_with_fake_camera.o
                                         0x24 (size before relaxing)
 .comment       0x0000000000000023       0x24 /home/nathan/Documents/Misc/quartus-free/pkg/quartus-free/opt/altera/18.1/nios2eds/bin/gnu/H-x86_64-pc-linux-gnu/bin/../lib/gcc/nios2-elf/5.3.0/libgcc.a(lib2-divmod.o)
 .comment       0x0000000000000023       0x24 /home/nathan/Documents/Misc/quartus-free/pkg/quartus-free/opt/altera/18.1/nios2eds/bin/gnu/H-x86_64-pc-linux-gnu/bin/../lib/gcc/nios2-elf/5.3.0/../../../../../H-x86_64-pc-linux-gnu/nios2-elf/lib/libc.a(lib_a-malloc.o)
 .comment       0x0000000000000023       0x24 /home/nathan/Documents/Misc/quartus-free/pkg/quartus-free/opt/altera/18.1/nios2eds/bin/gnu/H-x86_64-pc-linux-gnu/bin/../lib/gcc/nios2-elf/5.3.0/../../../../../H-x86_64-pc-linux-gnu/nios2-elf/lib/libc.a(lib_a-mallocr.o)
 .comment       0x0000000000000023       0x24 /home/nathan/Documents/Misc/quartus-free/pkg/quartus-free/opt/altera/18.1/nios2eds/bin/gnu/H-x86_64-pc-linux-gnu/bin/../lib/gcc/nios2-elf/5.3.0/../../../../../H-x86_64-pc-linux-gnu/nios2-elf/lib/libc.a(lib_a-printf.o)
 .comment       0x0000000000000023       0x24 /home/nathan/Documents/Misc/quartus-free/pkg/quartus-free/opt/altera/18.1/nios2eds/bin/gnu/H-x86_64-pc-linux-gnu/bin/../lib/gcc/nios2-elf/5.3.0/../../../../../H-x86_64-pc-linux-gnu/nios2-elf/lib/libc.a(lib_a-puts.o)
 .comment       0x0000000000000023       0x24 /home/nathan/Documents/Misc/quartus-free/pkg/quartus-free/opt/altera/18.1/nios2eds/bin/gnu/H-x86_64-pc-linux-gnu/bin/../lib/gcc/nios2-elf/5.3.0/../../../../../H-x86_64-pc-linux-gnu/nios2-elf/lib/libc.a(lib_a-sbrkr.o)
 .comment       0x0000000000000023       0x24 /home/nathan/Documents/Misc/quartus-free/pkg/quartus-free/opt/altera/18.1/nios2eds/bin/gnu/H-x86_64-pc-linux-gnu/bin/../lib/gcc/nios2-elf/5.3.0/../../../../../H-x86_64-pc-linux-gnu/nios2-elf/lib/libc.a(lib_a-strlen.o)
 .comment       0x0000000000000023       0x24 /home/nathan/Documents/Misc/quartus-free/pkg/quartus-free/opt/altera/18.1/nios2eds/bin/gnu/H-x86_64-pc-linux-gnu/bin/../lib/gcc/nios2-elf/5.3.0/../../../../../H-x86_64-pc-linux-gnu/nios2-elf/lib/libc.a(lib_a-vfprintf.o)
 .comment       0x0000000000000023       0x24 /home/nathan/Documents/Misc/quartus-free/pkg/quartus-free/opt/altera/18.1/nios2eds/bin/gnu/H-x86_64-pc-linux-gnu/bin/../lib/gcc/nios2-elf/5.3.0/../../../../../H-x86_64-pc-linux-gnu/nios2-elf/lib/libc.a(lib_a-wsetup.o)
 .comment       0x0000000000000023       0x24 /home/nathan/Documents/Misc/quartus-free/pkg/quartus-free/opt/altera/18.1/nios2eds/bin/gnu/H-x86_64-pc-linux-gnu/bin/../lib/gcc/nios2-elf/5.3.0/../../../../../H-x86_64-pc-linux-gnu/nios2-elf/lib/libc.a(lib_a-dtoa.o)
 .comment       0x0000000000000023       0x24 /home/nathan/Documents/Misc/quartus-free/pkg/quartus-free/opt/altera/18.1/nios2eds/bin/gnu/H-x86_64-pc-linux-gnu/bin/../lib/gcc/nios2-elf/5.3.0/../../../../../H-x86_64-pc-linux-gnu/nios2-elf/lib/libc.a(lib_a-fflush.o)
 .comment       0x0000000000000023       0x24 /home/nathan/Documents/Misc/quartus-free/pkg/quartus-free/opt/altera/18.1/nios2eds/bin/gnu/H-x86_64-pc-linux-gnu/bin/../lib/gcc/nios2-elf/5.3.0/../../../../../H-x86_64-pc-linux-gnu/nios2-elf/lib/libc.a(lib_a-findfp.o)
 .comment       0x0000000000000023       0x24 /home/nathan/Documents/Misc/quartus-free/pkg/quartus-free/opt/altera/18.1/nios2eds/bin/gnu/H-x86_64-pc-linux-gnu/bin/../lib/gcc/nios2-elf/5.3.0/../../../../../H-x86_64-pc-linux-gnu/nios2-elf/lib/libc.a(lib_a-freer.o)
 .comment       0x0000000000000023       0x24 /home/nathan/Documents/Misc/quartus-free/pkg/quartus-free/opt/altera/18.1/nios2eds/bin/gnu/H-x86_64-pc-linux-gnu/bin/../lib/gcc/nios2-elf/5.3.0/../../../../../H-x86_64-pc-linux-gnu/nios2-elf/lib/libc.a(lib_a-fvwrite.o)
 .comment       0x0000000000000023       0x24 /home/nathan/Documents/Misc/quartus-free/pkg/quartus-free/opt/altera/18.1/nios2eds/bin/gnu/H-x86_64-pc-linux-gnu/bin/../lib/gcc/nios2-elf/5.3.0/../../../../../H-x86_64-pc-linux-gnu/nios2-elf/lib/libc.a(lib_a-fwalk.o)
 .comment       0x0000000000000023       0x24 /home/nathan/Documents/Misc/quartus-free/pkg/quartus-free/opt/altera/18.1/nios2eds/bin/gnu/H-x86_64-pc-linux-gnu/bin/../lib/gcc/nios2-elf/5.3.0/../../../../../H-x86_64-pc-linux-gnu/nios2-elf/lib/libc.a(lib_a-impure.o)
 .comment       0x0000000000000023       0x24 /home/nathan/Documents/Misc/quartus-free/pkg/quartus-free/opt/altera/18.1/nios2eds/bin/gnu/H-x86_64-pc-linux-gnu/bin/../lib/gcc/nios2-elf/5.3.0/../../../../../H-x86_64-pc-linux-gnu/nios2-elf/lib/libc.a(lib_a-int_errno.o)
 .comment       0x0000000000000023       0x24 /home/nathan/Documents/Misc/quartus-free/pkg/quartus-free/opt/altera/18.1/nios2eds/bin/gnu/H-x86_64-pc-linux-gnu/bin/../lib/gcc/nios2-elf/5.3.0/../../../../../H-x86_64-pc-linux-gnu/nios2-elf/lib/libc.a(lib_a-locale.o)
 .comment       0x0000000000000023       0x24 /home/nathan/Documents/Misc/quartus-free/pkg/quartus-free/opt/altera/18.1/nios2eds/bin/gnu/H-x86_64-pc-linux-gnu/bin/../lib/gcc/nios2-elf/5.3.0/../../../../../H-x86_64-pc-linux-gnu/nios2-elf/lib/libc.a(lib_a-makebuf.o)
 .comment       0x0000000000000023       0x24 /home/nathan/Documents/Misc/quartus-free/pkg/quartus-free/opt/altera/18.1/nios2eds/bin/gnu/H-x86_64-pc-linux-gnu/bin/../lib/gcc/nios2-elf/5.3.0/../../../../../H-x86_64-pc-linux-gnu/nios2-elf/lib/libc.a(lib_a-memchr.o)
 .comment       0x0000000000000023       0x24 /home/nathan/Documents/Misc/quartus-free/pkg/quartus-free/opt/altera/18.1/nios2eds/bin/gnu/H-x86_64-pc-linux-gnu/bin/../lib/gcc/nios2-elf/5.3.0/../../../../../H-x86_64-pc-linux-gnu/nios2-elf/lib/libc.a(lib_a-memcpy.o)
 .comment       0x0000000000000023       0x24 /home/nathan/Documents/Misc/quartus-free/pkg/quartus-free/opt/altera/18.1/nios2eds/bin/gnu/H-x86_64-pc-linux-gnu/bin/../lib/gcc/nios2-elf/5.3.0/../../../../../H-x86_64-pc-linux-gnu/nios2-elf/lib/libc.a(lib_a-memmove.o)
 .comment       0x0000000000000023       0x24 /home/nathan/Documents/Misc/quartus-free/pkg/quartus-free/opt/altera/18.1/nios2eds/bin/gnu/H-x86_64-pc-linux-gnu/bin/../lib/gcc/nios2-elf/5.3.0/../../../../../H-x86_64-pc-linux-gnu/nios2-elf/lib/libc.a(lib_a-memset.o)
 .comment       0x0000000000000023       0x24 /home/nathan/Documents/Misc/quartus-free/pkg/quartus-free/opt/altera/18.1/nios2eds/bin/gnu/H-x86_64-pc-linux-gnu/bin/../lib/gcc/nios2-elf/5.3.0/../../../../../H-x86_64-pc-linux-gnu/nios2-elf/lib/libc.a(lib_a-mprec.o)
 .comment       0x0000000000000023       0x24 /home/nathan/Documents/Misc/quartus-free/pkg/quartus-free/opt/altera/18.1/nios2eds/bin/gnu/H-x86_64-pc-linux-gnu/bin/../lib/gcc/nios2-elf/5.3.0/../../../../../H-x86_64-pc-linux-gnu/nios2-elf/lib/libc.a(lib_a-reallocr.o)
 .comment       0x0000000000000023       0x24 /home/nathan/Documents/Misc/quartus-free/pkg/quartus-free/opt/altera/18.1/nios2eds/bin/gnu/H-x86_64-pc-linux-gnu/bin/../lib/gcc/nios2-elf/5.3.0/../../../../../H-x86_64-pc-linux-gnu/nios2-elf/lib/libc.a(lib_a-s_fpclassify.o)
 .comment       0x0000000000000023       0x24 /home/nathan/Documents/Misc/quartus-free/pkg/quartus-free/opt/altera/18.1/nios2eds/bin/gnu/H-x86_64-pc-linux-gnu/bin/../lib/gcc/nios2-elf/5.3.0/../../../../../H-x86_64-pc-linux-gnu/nios2-elf/lib/libc.a(lib_a-stdio.o)
 .comment       0x0000000000000023       0x24 /home/nathan/Documents/Misc/quartus-free/pkg/quartus-free/opt/altera/18.1/nios2eds/bin/gnu/H-x86_64-pc-linux-gnu/bin/../lib/gcc/nios2-elf/5.3.0/../../../../../H-x86_64-pc-linux-gnu/nios2-elf/lib/libc.a(lib_a-strcmp.o)
 .comment       0x0000000000000023       0x24 /home/nathan/Documents/Misc/quartus-free/pkg/quartus-free/opt/altera/18.1/nios2eds/bin/gnu/H-x86_64-pc-linux-gnu/bin/../lib/gcc/nios2-elf/5.3.0/../../../../../H-x86_64-pc-linux-gnu/nios2-elf/lib/libc.a(lib_a-vfiprintf.o)
 .comment       0x0000000000000023       0x24 /home/nathan/Documents/Misc/quartus-free/pkg/quartus-free/opt/altera/18.1/nios2eds/bin/gnu/H-x86_64-pc-linux-gnu/bin/../lib/gcc/nios2-elf/5.3.0/../../../../../H-x86_64-pc-linux-gnu/nios2-elf/lib/libc.a(lib_a-writer.o)
 .comment       0x0000000000000023       0x24 /home/nathan/Documents/Misc/quartus-free/pkg/quartus-free/opt/altera/18.1/nios2eds/bin/gnu/H-x86_64-pc-linux-gnu/bin/../lib/gcc/nios2-elf/5.3.0/../../../../../H-x86_64-pc-linux-gnu/nios2-elf/lib/libc.a(closer.o)
 .comment       0x0000000000000023       0x24 /home/nathan/Documents/Misc/quartus-free/pkg/quartus-free/opt/altera/18.1/nios2eds/bin/gnu/H-x86_64-pc-linux-gnu/bin/../lib/gcc/nios2-elf/5.3.0/../../../../../H-x86_64-pc-linux-gnu/nios2-elf/lib/libc.a(lib_a-callocr.o)
 .comment       0x0000000000000023       0x24 /home/nathan/Documents/Misc/quartus-free/pkg/quartus-free/opt/altera/18.1/nios2eds/bin/gnu/H-x86_64-pc-linux-gnu/bin/../lib/gcc/nios2-elf/5.3.0/../../../../../H-x86_64-pc-linux-gnu/nios2-elf/lib/libc.a(lib_a-fclose.o)
 .comment       0x0000000000000023       0x24 /home/nathan/Documents/Misc/quartus-free/pkg/quartus-free/opt/altera/18.1/nios2eds/bin/gnu/H-x86_64-pc-linux-gnu/bin/../lib/gcc/nios2-elf/5.3.0/../../../../../H-x86_64-pc-linux-gnu/nios2-elf/lib/libc.a(lib_a-fputwc.o)
 .comment       0x0000000000000023       0x24 /home/nathan/Documents/Misc/quartus-free/pkg/quartus-free/opt/altera/18.1/nios2eds/bin/gnu/H-x86_64-pc-linux-gnu/bin/../lib/gcc/nios2-elf/5.3.0/../../../../../H-x86_64-pc-linux-gnu/nios2-elf/lib/libc.a(lib_a-fstatr.o)
 .comment       0x0000000000000023       0x24 /home/nathan/Documents/Misc/quartus-free/pkg/quartus-free/opt/altera/18.1/nios2eds/bin/gnu/H-x86_64-pc-linux-gnu/bin/../lib/gcc/nios2-elf/5.3.0/../../../../../H-x86_64-pc-linux-gnu/nios2-elf/lib/libc.a(lib_a-isattyr.o)
 .comment       0x0000000000000023       0x24 /home/nathan/Documents/Misc/quartus-free/pkg/quartus-free/opt/altera/18.1/nios2eds/bin/gnu/H-x86_64-pc-linux-gnu/bin/../lib/gcc/nios2-elf/5.3.0/../../../../../H-x86_64-pc-linux-gnu/nios2-elf/lib/libc.a(lib_a-lseekr.o)
 .comment       0x0000000000000023       0x24 /home/nathan/Documents/Misc/quartus-free/pkg/quartus-free/opt/altera/18.1/nios2eds/bin/gnu/H-x86_64-pc-linux-gnu/bin/../lib/gcc/nios2-elf/5.3.0/../../../../../H-x86_64-pc-linux-gnu/nios2-elf/lib/libc.a(lib_a-readr.o)
 .comment       0x0000000000000023       0x24 /home/nathan/Documents/Misc/quartus-free/pkg/quartus-free/opt/altera/18.1/nios2eds/bin/gnu/H-x86_64-pc-linux-gnu/bin/../lib/gcc/nios2-elf/5.3.0/../../../../../H-x86_64-pc-linux-gnu/nios2-elf/lib/libc.a(lib_a-wbuf.o)
 .comment       0x0000000000000023       0x24 /home/nathan/Documents/Misc/quartus-free/pkg/quartus-free/opt/altera/18.1/nios2eds/bin/gnu/H-x86_64-pc-linux-gnu/bin/../lib/gcc/nios2-elf/5.3.0/../../../../../H-x86_64-pc-linux-gnu/nios2-elf/lib/libc.a(lib_a-wcrtomb.o)
 .comment       0x0000000000000023       0x24 /home/nathan/Documents/Misc/quartus-free/pkg/quartus-free/opt/altera/18.1/nios2eds/bin/gnu/H-x86_64-pc-linux-gnu/bin/../lib/gcc/nios2-elf/5.3.0/../../../../../H-x86_64-pc-linux-gnu/nios2-elf/lib/libc.a(lib_a-wctomb_r.o)
 .comment       0x0000000000000023       0x24 /home/nathan/Documents/Misc/quartus-free/pkg/quartus-free/opt/altera/18.1/nios2eds/bin/gnu/H-x86_64-pc-linux-gnu/bin/../lib/gcc/nios2-elf/5.3.0/libgcc.a(_udivdi3.o)
 .comment       0x0000000000000023       0x24 /home/nathan/Documents/Misc/quartus-free/pkg/quartus-free/opt/altera/18.1/nios2eds/bin/gnu/H-x86_64-pc-linux-gnu/bin/../lib/gcc/nios2-elf/5.3.0/libgcc.a(_umoddi3.o)
 .comment       0x0000000000000023       0x24 /home/nathan/Documents/Misc/quartus-free/pkg/quartus-free/opt/altera/18.1/nios2eds/bin/gnu/H-x86_64-pc-linux-gnu/bin/../lib/gcc/nios2-elf/5.3.0/libgcc.a(adddf3.o)
 .comment       0x0000000000000023       0x24 /home/nathan/Documents/Misc/quartus-free/pkg/quartus-free/opt/altera/18.1/nios2eds/bin/gnu/H-x86_64-pc-linux-gnu/bin/../lib/gcc/nios2-elf/5.3.0/libgcc.a(divdf3.o)
 .comment       0x0000000000000023       0x24 /home/nathan/Documents/Misc/quartus-free/pkg/quartus-free/opt/altera/18.1/nios2eds/bin/gnu/H-x86_64-pc-linux-gnu/bin/../lib/gcc/nios2-elf/5.3.0/libgcc.a(eqdf2.o)
 .comment       0x0000000000000023       0x24 /home/nathan/Documents/Misc/quartus-free/pkg/quartus-free/opt/altera/18.1/nios2eds/bin/gnu/H-x86_64-pc-linux-gnu/bin/../lib/gcc/nios2-elf/5.3.0/libgcc.a(gedf2.o)
 .comment       0x0000000000000023       0x24 /home/nathan/Documents/Misc/quartus-free/pkg/quartus-free/opt/altera/18.1/nios2eds/bin/gnu/H-x86_64-pc-linux-gnu/bin/../lib/gcc/nios2-elf/5.3.0/libgcc.a(ledf2.o)
 .comment       0x0000000000000023       0x24 /home/nathan/Documents/Misc/quartus-free/pkg/quartus-free/opt/altera/18.1/nios2eds/bin/gnu/H-x86_64-pc-linux-gnu/bin/../lib/gcc/nios2-elf/5.3.0/libgcc.a(muldf3.o)
 .comment       0x0000000000000023       0x24 /home/nathan/Documents/Misc/quartus-free/pkg/quartus-free/opt/altera/18.1/nios2eds/bin/gnu/H-x86_64-pc-linux-gnu/bin/../lib/gcc/nios2-elf/5.3.0/libgcc.a(subdf3.o)
 .comment       0x0000000000000023       0x24 /home/nathan/Documents/Misc/quartus-free/pkg/quartus-free/opt/altera/18.1/nios2eds/bin/gnu/H-x86_64-pc-linux-gnu/bin/../lib/gcc/nios2-elf/5.3.0/libgcc.a(fixdfsi.o)
 .comment       0x0000000000000023       0x24 /home/nathan/Documents/Misc/quartus-free/pkg/quartus-free/opt/altera/18.1/nios2eds/bin/gnu/H-x86_64-pc-linux-gnu/bin/../lib/gcc/nios2-elf/5.3.0/libgcc.a(floatsidf.o)
 .comment       0x0000000000000023       0x24 /home/nathan/Documents/Misc/quartus-free/pkg/quartus-free/opt/altera/18.1/nios2eds/bin/gnu/H-x86_64-pc-linux-gnu/bin/../lib/gcc/nios2-elf/5.3.0/libgcc.a(floatunsidf.o)
 .comment       0x0000000000000023       0x24 /home/nathan/Documents/Misc/quartus-free/pkg/quartus-free/opt/altera/18.1/nios2eds/bin/gnu/H-x86_64-pc-linux-gnu/bin/../lib/gcc/nios2-elf/5.3.0/libgcc.a(_clz.o)
 .comment       0x0000000000000023       0x24 /home/nathan/Documents/Misc/quartus-free/pkg/quartus-free/opt/altera/18.1/nios2eds/bin/gnu/H-x86_64-pc-linux-gnu/bin/../lib/gcc/nios2-elf/5.3.0/libgcc.a(_clzsi2.o)
 .comment       0x0000000000000023       0x24 /home/nathan/Documents/Cours/EPFL_RTES_CS476/Code/mini_project_v2/sw/mini_project_v3_bsp//libucosii_bsp.a(alt_close.o)
 .comment       0x0000000000000023       0x24 /home/nathan/Documents/Cours/EPFL_RTES_CS476/Code/mini_project_v2/sw/mini_project_v3_bsp//libucosii_bsp.a(alt_dev.o)
 .comment       0x0000000000000023       0x24 /home/nathan/Documents/Cours/EPFL_RTES_CS476/Code/mini_project_v2/sw/mini_project_v3_bsp//libucosii_bsp.a(alt_errno.o)
 .comment       0x0000000000000023       0x24 /home/nathan/Documents/Cours/EPFL_RTES_CS476/Code/mini_project_v2/sw/mini_project_v3_bsp//libucosii_bsp.a(alt_fstat.o)
 .comment       0x0000000000000023       0x24 /home/nathan/Documents/Cours/EPFL_RTES_CS476/Code/mini_project_v2/sw/mini_project_v3_bsp//libucosii_bsp.a(alt_isatty.o)
 .comment       0x0000000000000023       0x24 /home/nathan/Documents/Cours/EPFL_RTES_CS476/Code/mini_project_v2/sw/mini_project_v3_bsp//libucosii_bsp.a(alt_load.o)
 .comment       0x0000000000000023       0x24 /home/nathan/Documents/Cours/EPFL_RTES_CS476/Code/mini_project_v2/sw/mini_project_v3_bsp//libucosii_bsp.a(alt_lseek.o)
 .comment       0x0000000000000023       0x24 /home/nathan/Documents/Cours/EPFL_RTES_CS476/Code/mini_project_v2/sw/mini_project_v3_bsp//libucosii_bsp.a(alt_main.o)
 .comment       0x0000000000000023       0x24 /home/nathan/Documents/Cours/EPFL_RTES_CS476/Code/mini_project_v2/sw/mini_project_v3_bsp//libucosii_bsp.a(alt_read.o)
 .comment       0x0000000000000023       0x24 /home/nathan/Documents/Cours/EPFL_RTES_CS476/Code/mini_project_v2/sw/mini_project_v3_bsp//libucosii_bsp.a(alt_release_fd.o)
 .comment       0x0000000000000023       0x24 /home/nathan/Documents/Cours/EPFL_RTES_CS476/Code/mini_project_v2/sw/mini_project_v3_bsp//libucosii_bsp.a(alt_sbrk.o)
 .comment       0x0000000000000023       0x24 /home/nathan/Documents/Cours/EPFL_RTES_CS476/Code/mini_project_v2/sw/mini_project_v3_bsp//libucosii_bsp.a(alt_write.o)
 .comment       0x0000000000000023       0x24 /home/nathan/Documents/Cours/EPFL_RTES_CS476/Code/mini_project_v2/sw/mini_project_v3_bsp//libucosii_bsp.a(alt_env_lock.o)
 .comment       0x0000000000000023       0x24 /home/nathan/Documents/Cours/EPFL_RTES_CS476/Code/mini_project_v2/sw/mini_project_v3_bsp//libucosii_bsp.a(alt_malloc_lock.o)
 .comment       0x0000000000000023       0x24 /home/nathan/Documents/Cours/EPFL_RTES_CS476/Code/mini_project_v2/sw/mini_project_v3_bsp//libucosii_bsp.a(os_core.o)
 .comment       0x0000000000000023       0x24 /home/nathan/Documents/Cours/EPFL_RTES_CS476/Code/mini_project_v2/sw/mini_project_v3_bsp//libucosii_bsp.a(os_dbg.o)
 .comment       0x0000000000000023       0x24 /home/nathan/Documents/Cours/EPFL_RTES_CS476/Code/mini_project_v2/sw/mini_project_v3_bsp//libucosii_bsp.a(os_flag.o)
 .comment       0x0000000000000023       0x24 /home/nathan/Documents/Cours/EPFL_RTES_CS476/Code/mini_project_v2/sw/mini_project_v3_bsp//libucosii_bsp.a(os_mem.o)
 .comment       0x0000000000000023       0x24 /home/nathan/Documents/Cours/EPFL_RTES_CS476/Code/mini_project_v2/sw/mini_project_v3_bsp//libucosii_bsp.a(os_q.o)
 .comment       0x0000000000000023       0x24 /home/nathan/Documents/Cours/EPFL_RTES_CS476/Code/mini_project_v2/sw/mini_project_v3_bsp//libucosii_bsp.a(os_sem.o)
 .comment       0x0000000000000023       0x24 /home/nathan/Documents/Cours/EPFL_RTES_CS476/Code/mini_project_v2/sw/mini_project_v3_bsp//libucosii_bsp.a(os_task.o)
 .comment       0x0000000000000023       0x24 /home/nathan/Documents/Cours/EPFL_RTES_CS476/Code/mini_project_v2/sw/mini_project_v3_bsp//libucosii_bsp.a(os_time.o)
 .comment       0x0000000000000023       0x24 /home/nathan/Documents/Cours/EPFL_RTES_CS476/Code/mini_project_v2/sw/mini_project_v3_bsp//libucosii_bsp.a(alt_sys_init.o)
 .comment       0x0000000000000023       0x24 /home/nathan/Documents/Cours/EPFL_RTES_CS476/Code/mini_project_v2/sw/mini_project_v3_bsp//libucosii_bsp.a(altera_avalon_jtag_uart_fd.o)
 .comment       0x0000000000000023       0x24 /home/nathan/Documents/Cours/EPFL_RTES_CS476/Code/mini_project_v2/sw/mini_project_v3_bsp//libucosii_bsp.a(altera_avalon_jtag_uart_init.o)
 .comment       0x0000000000000023       0x24 /home/nathan/Documents/Cours/EPFL_RTES_CS476/Code/mini_project_v2/sw/mini_project_v3_bsp//libucosii_bsp.a(altera_avalon_jtag_uart_ioctl.o)
 .comment       0x0000000000000023       0x24 /home/nathan/Documents/Cours/EPFL_RTES_CS476/Code/mini_project_v2/sw/mini_project_v3_bsp//libucosii_bsp.a(altera_avalon_jtag_uart_read.o)
 .comment       0x0000000000000023       0x24 /home/nathan/Documents/Cours/EPFL_RTES_CS476/Code/mini_project_v2/sw/mini_project_v3_bsp//libucosii_bsp.a(altera_avalon_jtag_uart_write.o)
 .comment       0x0000000000000023       0x24 /home/nathan/Documents/Cours/EPFL_RTES_CS476/Code/mini_project_v2/sw/mini_project_v3_bsp//libucosii_bsp.a(altera_avalon_timer_sc.o)
 .comment       0x0000000000000023       0x24 /home/nathan/Documents/Cours/EPFL_RTES_CS476/Code/mini_project_v2/sw/mini_project_v3_bsp//libucosii_bsp.a(alt_alarm_start.o)
 .comment       0x0000000000000023       0x24 /home/nathan/Documents/Cours/EPFL_RTES_CS476/Code/mini_project_v2/sw/mini_project_v3_bsp//libucosii_bsp.a(alt_dcache_flush_all.o)
 .comment       0x0000000000000023       0x24 /home/nathan/Documents/Cours/EPFL_RTES_CS476/Code/mini_project_v2/sw/mini_project_v3_bsp//libucosii_bsp.a(alt_dev_llist_insert.o)
 .comment       0x0000000000000023       0x24 /home/nathan/Documents/Cours/EPFL_RTES_CS476/Code/mini_project_v2/sw/mini_project_v3_bsp//libucosii_bsp.a(alt_do_ctors.o)
 .comment       0x0000000000000023       0x24 /home/nathan/Documents/Cours/EPFL_RTES_CS476/Code/mini_project_v2/sw/mini_project_v3_bsp//libucosii_bsp.a(alt_do_dtors.o)
 .comment       0x0000000000000023       0x24 /home/nathan/Documents/Cours/EPFL_RTES_CS476/Code/mini_project_v2/sw/mini_project_v3_bsp//libucosii_bsp.a(alt_icache_flush_all.o)
 .comment       0x0000000000000023       0x24 /home/nathan/Documents/Cours/EPFL_RTES_CS476/Code/mini_project_v2/sw/mini_project_v3_bsp//libucosii_bsp.a(alt_iic.o)
 .comment       0x0000000000000023       0x24 /home/nathan/Documents/Cours/EPFL_RTES_CS476/Code/mini_project_v2/sw/mini_project_v3_bsp//libucosii_bsp.a(alt_iic_isr_register.o)
 .comment       0x0000000000000023       0x24 /home/nathan/Documents/Cours/EPFL_RTES_CS476/Code/mini_project_v2/sw/mini_project_v3_bsp//libucosii_bsp.a(alt_io_redirect.o)
 .comment       0x0000000000000023       0x24 /home/nathan/Documents/Cours/EPFL_RTES_CS476/Code/mini_project_v2/sw/mini_project_v3_bsp//libucosii_bsp.a(alt_irq_handler.o)
 .comment       0x0000000000000023       0x24 /home/nathan/Documents/Cours/EPFL_RTES_CS476/Code/mini_project_v2/sw/mini_project_v3_bsp//libucosii_bsp.a(alt_irq_vars.o)
 .comment       0x0000000000000023       0x24 /home/nathan/Documents/Cours/EPFL_RTES_CS476/Code/mini_project_v2/sw/mini_project_v3_bsp//libucosii_bsp.a(alt_open.o)
 .comment       0x0000000000000023       0x24 /home/nathan/Documents/Cours/EPFL_RTES_CS476/Code/mini_project_v2/sw/mini_project_v3_bsp//libucosii_bsp.a(alt_tick.o)
 .comment       0x0000000000000023       0x24 /home/nathan/Documents/Cours/EPFL_RTES_CS476/Code/mini_project_v2/sw/mini_project_v3_bsp//libucosii_bsp.a(altera_nios2_gen2_irq.o)
 .comment       0x0000000000000023       0x24 /home/nathan/Documents/Cours/EPFL_RTES_CS476/Code/mini_project_v2/sw/mini_project_v3_bsp//libucosii_bsp.a(os_cpu_c.o)
 .comment       0x0000000000000023       0x24 /home/nathan/Documents/Cours/EPFL_RTES_CS476/Code/mini_project_v2/sw/mini_project_v3_bsp//libucosii_bsp.a(alt_find_dev.o)
 .comment       0x0000000000000023       0x24 /home/nathan/Documents/Cours/EPFL_RTES_CS476/Code/mini_project_v2/sw/mini_project_v3_bsp//libucosii_bsp.a(alt_find_file.o)
 .comment       0x0000000000000023       0x24 /home/nathan/Documents/Cours/EPFL_RTES_CS476/Code/mini_project_v2/sw/mini_project_v3_bsp//libucosii_bsp.a(alt_get_fd.o)
 .comment       0x0000000000000023       0x24 /home/nathan/Documents/Cours/EPFL_RTES_CS476/Code/mini_project_v2/sw/mini_project_v3_bsp//libucosii_bsp.a(alt_instruction_exception_entry.o)
 .comment       0x0000000000000023       0x24 /home/nathan/Documents/Misc/quartus-free/pkg/quartus-free/opt/altera/18.1/nios2eds/bin/gnu/H-x86_64-pc-linux-gnu/bin/../lib/gcc/nios2-elf/5.3.0/../../../../../H-x86_64-pc-linux-gnu/nios2-elf/lib/libc.a(lib_a-atexit.o)
 .comment       0x0000000000000023       0x24 /home/nathan/Documents/Misc/quartus-free/pkg/quartus-free/opt/altera/18.1/nios2eds/bin/gnu/H-x86_64-pc-linux-gnu/bin/../lib/gcc/nios2-elf/5.3.0/../../../../../H-x86_64-pc-linux-gnu/nios2-elf/lib/libc.a(lib_a-exit.o)
 .comment       0x0000000000000023       0x24 /home/nathan/Documents/Misc/quartus-free/pkg/quartus-free/opt/altera/18.1/nios2eds/bin/gnu/H-x86_64-pc-linux-gnu/bin/../lib/gcc/nios2-elf/5.3.0/../../../../../H-x86_64-pc-linux-gnu/nios2-elf/lib/libc.a(lib_a-memcmp.o)
 .comment       0x0000000000000023       0x24 /home/nathan/Documents/Misc/quartus-free/pkg/quartus-free/opt/altera/18.1/nios2eds/bin/gnu/H-x86_64-pc-linux-gnu/bin/../lib/gcc/nios2-elf/5.3.0/../../../../../H-x86_64-pc-linux-gnu/nios2-elf/lib/libc.a(lib_a-__atexit.o)
 .comment       0x0000000000000023       0x24 /home/nathan/Documents/Misc/quartus-free/pkg/quartus-free/opt/altera/18.1/nios2eds/bin/gnu/H-x86_64-pc-linux-gnu/bin/../lib/gcc/nios2-elf/5.3.0/../../../../../H-x86_64-pc-linux-gnu/nios2-elf/lib/libc.a(lib_a-__call_atexit.o)
 .comment       0x0000000000000023       0x24 /home/nathan/Documents/Cours/EPFL_RTES_CS476/Code/mini_project_v2/sw/mini_project_v3_bsp//libucosii_bsp.a(alt_exit.o)

.debug
 *(.debug)

.line
 *(.line)

.debug_srcinfo
 *(.debug_srcinfo)

.debug_sfnames
 *(.debug_sfnames)

.debug_aranges  0x0000000000000000     0x1020
 *(.debug_aranges)
 .debug_aranges
                0x0000000000000000       0x28 /home/nathan/Documents/Cours/EPFL_RTES_CS476/Code/mini_project_v2/sw/mini_project_v3_bsp//obj/HAL/src/crt0.o
 .debug_aranges
                0x0000000000000028       0x20 obj/default/mini_project_with_fake_camera.o
 .debug_aranges
                0x0000000000000048       0x20 /home/nathan/Documents/Misc/quartus-free/pkg/quartus-free/opt/altera/18.1/nios2eds/bin/gnu/H-x86_64-pc-linux-gnu/bin/../lib/gcc/nios2-elf/5.3.0/libgcc.a(lib2-divmod.o)
 .debug_aranges
                0x0000000000000068       0x28 /home/nathan/Documents/Misc/quartus-free/pkg/quartus-free/opt/altera/18.1/nios2eds/bin/gnu/H-x86_64-pc-linux-gnu/bin/../lib/gcc/nios2-elf/5.3.0/../../../../../H-x86_64-pc-linux-gnu/nios2-elf/lib/libc.a(lib_a-malloc.o)
 .debug_aranges
                0x0000000000000090       0x20 /home/nathan/Documents/Misc/quartus-free/pkg/quartus-free/opt/altera/18.1/nios2eds/bin/gnu/H-x86_64-pc-linux-gnu/bin/../lib/gcc/nios2-elf/5.3.0/../../../../../H-x86_64-pc-linux-gnu/nios2-elf/lib/libc.a(lib_a-mallocr.o)
 .debug_aranges
                0x00000000000000b0       0x28 /home/nathan/Documents/Misc/quartus-free/pkg/quartus-free/opt/altera/18.1/nios2eds/bin/gnu/H-x86_64-pc-linux-gnu/bin/../lib/gcc/nios2-elf/5.3.0/../../../../../H-x86_64-pc-linux-gnu/nios2-elf/lib/libc.a(lib_a-printf.o)
 .debug_aranges
                0x00000000000000d8       0x28 /home/nathan/Documents/Misc/quartus-free/pkg/quartus-free/opt/altera/18.1/nios2eds/bin/gnu/H-x86_64-pc-linux-gnu/bin/../lib/gcc/nios2-elf/5.3.0/../../../../../H-x86_64-pc-linux-gnu/nios2-elf/lib/libc.a(lib_a-puts.o)
 .debug_aranges
                0x0000000000000100       0x20 /home/nathan/Documents/Misc/quartus-free/pkg/quartus-free/opt/altera/18.1/nios2eds/bin/gnu/H-x86_64-pc-linux-gnu/bin/../lib/gcc/nios2-elf/5.3.0/../../../../../H-x86_64-pc-linux-gnu/nios2-elf/lib/libc.a(lib_a-sbrkr.o)
 .debug_aranges
                0x0000000000000120       0x20 /home/nathan/Documents/Misc/quartus-free/pkg/quartus-free/opt/altera/18.1/nios2eds/bin/gnu/H-x86_64-pc-linux-gnu/bin/../lib/gcc/nios2-elf/5.3.0/../../../../../H-x86_64-pc-linux-gnu/nios2-elf/lib/libc.a(lib_a-strlen.o)
 .debug_aranges
                0x0000000000000140       0x30 /home/nathan/Documents/Misc/quartus-free/pkg/quartus-free/opt/altera/18.1/nios2eds/bin/gnu/H-x86_64-pc-linux-gnu/bin/../lib/gcc/nios2-elf/5.3.0/../../../../../H-x86_64-pc-linux-gnu/nios2-elf/lib/libc.a(lib_a-vfprintf.o)
 .debug_aranges
                0x0000000000000170       0x20 /home/nathan/Documents/Misc/quartus-free/pkg/quartus-free/opt/altera/18.1/nios2eds/bin/gnu/H-x86_64-pc-linux-gnu/bin/../lib/gcc/nios2-elf/5.3.0/../../../../../H-x86_64-pc-linux-gnu/nios2-elf/lib/libc.a(lib_a-wsetup.o)
 .debug_aranges
                0x0000000000000190       0x28 /home/nathan/Documents/Misc/quartus-free/pkg/quartus-free/opt/altera/18.1/nios2eds/bin/gnu/H-x86_64-pc-linux-gnu/bin/../lib/gcc/nios2-elf/5.3.0/../../../../../H-x86_64-pc-linux-gnu/nios2-elf/lib/libc.a(lib_a-dtoa.o)
 .debug_aranges
                0x00000000000001b8       0x30 /home/nathan/Documents/Misc/quartus-free/pkg/quartus-free/opt/altera/18.1/nios2eds/bin/gnu/H-x86_64-pc-linux-gnu/bin/../lib/gcc/nios2-elf/5.3.0/../../../../../H-x86_64-pc-linux-gnu/nios2-elf/lib/libc.a(lib_a-fflush.o)
 .debug_aranges
                0x00000000000001e8       0x68 /home/nathan/Documents/Misc/quartus-free/pkg/quartus-free/opt/altera/18.1/nios2eds/bin/gnu/H-x86_64-pc-linux-gnu/bin/../lib/gcc/nios2-elf/5.3.0/../../../../../H-x86_64-pc-linux-gnu/nios2-elf/lib/libc.a(lib_a-findfp.o)
 .debug_aranges
                0x0000000000000250       0x28 /home/nathan/Documents/Misc/quartus-free/pkg/quartus-free/opt/altera/18.1/nios2eds/bin/gnu/H-x86_64-pc-linux-gnu/bin/../lib/gcc/nios2-elf/5.3.0/../../../../../H-x86_64-pc-linux-gnu/nios2-elf/lib/libc.a(lib_a-freer.o)
 .debug_aranges
                0x0000000000000278       0x20 /home/nathan/Documents/Misc/quartus-free/pkg/quartus-free/opt/altera/18.1/nios2eds/bin/gnu/H-x86_64-pc-linux-gnu/bin/../lib/gcc/nios2-elf/5.3.0/../../../../../H-x86_64-pc-linux-gnu/nios2-elf/lib/libc.a(lib_a-fvwrite.o)
 .debug_aranges
                0x0000000000000298       0x28 /home/nathan/Documents/Misc/quartus-free/pkg/quartus-free/opt/altera/18.1/nios2eds/bin/gnu/H-x86_64-pc-linux-gnu/bin/../lib/gcc/nios2-elf/5.3.0/../../../../../H-x86_64-pc-linux-gnu/nios2-elf/lib/libc.a(lib_a-fwalk.o)
 .debug_aranges
                0x00000000000002c0       0x18 /home/nathan/Documents/Misc/quartus-free/pkg/quartus-free/opt/altera/18.1/nios2eds/bin/gnu/H-x86_64-pc-linux-gnu/bin/../lib/gcc/nios2-elf/5.3.0/../../../../../H-x86_64-pc-linux-gnu/nios2-elf/lib/libc.a(lib_a-impure.o)
 .debug_aranges
                0x00000000000002d8       0x18 /home/nathan/Documents/Misc/quartus-free/pkg/quartus-free/opt/altera/18.1/nios2eds/bin/gnu/H-x86_64-pc-linux-gnu/bin/../lib/gcc/nios2-elf/5.3.0/../../../../../H-x86_64-pc-linux-gnu/nios2-elf/lib/libc.a(lib_a-int_errno.o)
 .debug_aranges
                0x00000000000002f0       0x58 /home/nathan/Documents/Misc/quartus-free/pkg/quartus-free/opt/altera/18.1/nios2eds/bin/gnu/H-x86_64-pc-linux-gnu/bin/../lib/gcc/nios2-elf/5.3.0/../../../../../H-x86_64-pc-linux-gnu/nios2-elf/lib/libc.a(lib_a-locale.o)
 .debug_aranges
                0x0000000000000348       0x20 /home/nathan/Documents/Misc/quartus-free/pkg/quartus-free/opt/altera/18.1/nios2eds/bin/gnu/H-x86_64-pc-linux-gnu/bin/../lib/gcc/nios2-elf/5.3.0/../../../../../H-x86_64-pc-linux-gnu/nios2-elf/lib/libc.a(lib_a-makebuf.o)
 .debug_aranges
                0x0000000000000368       0x20 /home/nathan/Documents/Misc/quartus-free/pkg/quartus-free/opt/altera/18.1/nios2eds/bin/gnu/H-x86_64-pc-linux-gnu/bin/../lib/gcc/nios2-elf/5.3.0/../../../../../H-x86_64-pc-linux-gnu/nios2-elf/lib/libc.a(lib_a-memchr.o)
 .debug_aranges
                0x0000000000000388       0x20 /home/nathan/Documents/Misc/quartus-free/pkg/quartus-free/opt/altera/18.1/nios2eds/bin/gnu/H-x86_64-pc-linux-gnu/bin/../lib/gcc/nios2-elf/5.3.0/../../../../../H-x86_64-pc-linux-gnu/nios2-elf/lib/libc.a(lib_a-memcpy.o)
 .debug_aranges
                0x00000000000003a8       0x20 /home/nathan/Documents/Misc/quartus-free/pkg/quartus-free/opt/altera/18.1/nios2eds/bin/gnu/H-x86_64-pc-linux-gnu/bin/../lib/gcc/nios2-elf/5.3.0/../../../../../H-x86_64-pc-linux-gnu/nios2-elf/lib/libc.a(lib_a-memmove.o)
 .debug_aranges
                0x00000000000003c8       0x20 /home/nathan/Documents/Misc/quartus-free/pkg/quartus-free/opt/altera/18.1/nios2eds/bin/gnu/H-x86_64-pc-linux-gnu/bin/../lib/gcc/nios2-elf/5.3.0/../../../../../H-x86_64-pc-linux-gnu/nios2-elf/lib/libc.a(lib_a-memset.o)
 .debug_aranges
                0x00000000000003e8       0xb0 /home/nathan/Documents/Misc/quartus-free/pkg/quartus-free/opt/altera/18.1/nios2eds/bin/gnu/H-x86_64-pc-linux-gnu/bin/../lib/gcc/nios2-elf/5.3.0/../../../../../H-x86_64-pc-linux-gnu/nios2-elf/lib/libc.a(lib_a-mprec.o)
 .debug_aranges
                0x0000000000000498       0x20 /home/nathan/Documents/Misc/quartus-free/pkg/quartus-free/opt/altera/18.1/nios2eds/bin/gnu/H-x86_64-pc-linux-gnu/bin/../lib/gcc/nios2-elf/5.3.0/../../../../../H-x86_64-pc-linux-gnu/nios2-elf/lib/libc.a(lib_a-reallocr.o)
 .debug_aranges
                0x00000000000004b8       0x20 /home/nathan/Documents/Misc/quartus-free/pkg/quartus-free/opt/altera/18.1/nios2eds/bin/gnu/H-x86_64-pc-linux-gnu/bin/../lib/gcc/nios2-elf/5.3.0/../../../../../H-x86_64-pc-linux-gnu/nios2-elf/lib/libc.a(lib_a-s_fpclassify.o)
 .debug_aranges
                0x00000000000004d8       0x40 /home/nathan/Documents/Misc/quartus-free/pkg/quartus-free/opt/altera/18.1/nios2eds/bin/gnu/H-x86_64-pc-linux-gnu/bin/../lib/gcc/nios2-elf/5.3.0/../../../../../H-x86_64-pc-linux-gnu/nios2-elf/lib/libc.a(lib_a-stdio.o)
 .debug_aranges
                0x0000000000000518       0x20 /home/nathan/Documents/Misc/quartus-free/pkg/quartus-free/opt/altera/18.1/nios2eds/bin/gnu/H-x86_64-pc-linux-gnu/bin/../lib/gcc/nios2-elf/5.3.0/../../../../../H-x86_64-pc-linux-gnu/nios2-elf/lib/libc.a(lib_a-strcmp.o)
 .debug_aranges
                0x0000000000000538       0x40 /home/nathan/Documents/Misc/quartus-free/pkg/quartus-free/opt/altera/18.1/nios2eds/bin/gnu/H-x86_64-pc-linux-gnu/bin/../lib/gcc/nios2-elf/5.3.0/../../../../../H-x86_64-pc-linux-gnu/nios2-elf/lib/libc.a(lib_a-vfiprintf.o)
 .debug_aranges
                0x0000000000000578       0x20 /home/nathan/Documents/Misc/quartus-free/pkg/quartus-free/opt/altera/18.1/nios2eds/bin/gnu/H-x86_64-pc-linux-gnu/bin/../lib/gcc/nios2-elf/5.3.0/../../../../../H-x86_64-pc-linux-gnu/nios2-elf/lib/libc.a(lib_a-writer.o)
 .debug_aranges
                0x0000000000000598       0x20 /home/nathan/Documents/Misc/quartus-free/pkg/quartus-free/opt/altera/18.1/nios2eds/bin/gnu/H-x86_64-pc-linux-gnu/bin/../lib/gcc/nios2-elf/5.3.0/../../../../../H-x86_64-pc-linux-gnu/nios2-elf/lib/libc.a(closer.o)
 .debug_aranges
                0x00000000000005b8       0x20 /home/nathan/Documents/Misc/quartus-free/pkg/quartus-free/opt/altera/18.1/nios2eds/bin/gnu/H-x86_64-pc-linux-gnu/bin/../lib/gcc/nios2-elf/5.3.0/../../../../../H-x86_64-pc-linux-gnu/nios2-elf/lib/libc.a(lib_a-callocr.o)
 .debug_aranges
                0x00000000000005d8       0x28 /home/nathan/Documents/Misc/quartus-free/pkg/quartus-free/opt/altera/18.1/nios2eds/bin/gnu/H-x86_64-pc-linux-gnu/bin/../lib/gcc/nios2-elf/5.3.0/../../../../../H-x86_64-pc-linux-gnu/nios2-elf/lib/libc.a(lib_a-fclose.o)
 .debug_aranges
                0x0000000000000600       0x30 /home/nathan/Documents/Misc/quartus-free/pkg/quartus-free/opt/altera/18.1/nios2eds/bin/gnu/H-x86_64-pc-linux-gnu/bin/../lib/gcc/nios2-elf/5.3.0/../../../../../H-x86_64-pc-linux-gnu/nios2-elf/lib/libc.a(lib_a-fputwc.o)
 .debug_aranges
                0x0000000000000630       0x20 /home/nathan/Documents/Misc/quartus-free/pkg/quartus-free/opt/altera/18.1/nios2eds/bin/gnu/H-x86_64-pc-linux-gnu/bin/../lib/gcc/nios2-elf/5.3.0/../../../../../H-x86_64-pc-linux-gnu/nios2-elf/lib/libc.a(lib_a-fstatr.o)
 .debug_aranges
                0x0000000000000650       0x20 /home/nathan/Documents/Misc/quartus-free/pkg/quartus-free/opt/altera/18.1/nios2eds/bin/gnu/H-x86_64-pc-linux-gnu/bin/../lib/gcc/nios2-elf/5.3.0/../../../../../H-x86_64-pc-linux-gnu/nios2-elf/lib/libc.a(lib_a-isattyr.o)
 .debug_aranges
                0x0000000000000670       0x20 /home/nathan/Documents/Misc/quartus-free/pkg/quartus-free/opt/altera/18.1/nios2eds/bin/gnu/H-x86_64-pc-linux-gnu/bin/../lib/gcc/nios2-elf/5.3.0/../../../../../H-x86_64-pc-linux-gnu/nios2-elf/lib/libc.a(lib_a-lseekr.o)
 .debug_aranges
                0x0000000000000690       0x20 /home/nathan/Documents/Misc/quartus-free/pkg/quartus-free/opt/altera/18.1/nios2eds/bin/gnu/H-x86_64-pc-linux-gnu/bin/../lib/gcc/nios2-elf/5.3.0/../../../../../H-x86_64-pc-linux-gnu/nios2-elf/lib/libc.a(lib_a-readr.o)
 .debug_aranges
                0x00000000000006b0       0x28 /home/nathan/Documents/Misc/quartus-free/pkg/quartus-free/opt/altera/18.1/nios2eds/bin/gnu/H-x86_64-pc-linux-gnu/bin/../lib/gcc/nios2-elf/5.3.0/../../../../../H-x86_64-pc-linux-gnu/nios2-elf/lib/libc.a(lib_a-wbuf.o)
 .debug_aranges
                0x00000000000006d8       0x28 /home/nathan/Documents/Misc/quartus-free/pkg/quartus-free/opt/altera/18.1/nios2eds/bin/gnu/H-x86_64-pc-linux-gnu/bin/../lib/gcc/nios2-elf/5.3.0/../../../../../H-x86_64-pc-linux-gnu/nios2-elf/lib/libc.a(lib_a-wcrtomb.o)
 .debug_aranges
                0x0000000000000700       0x28 /home/nathan/Documents/Misc/quartus-free/pkg/quartus-free/opt/altera/18.1/nios2eds/bin/gnu/H-x86_64-pc-linux-gnu/bin/../lib/gcc/nios2-elf/5.3.0/../../../../../H-x86_64-pc-linux-gnu/nios2-elf/lib/libc.a(lib_a-wctomb_r.o)
 .debug_aranges
                0x0000000000000728       0x20 /home/nathan/Documents/Misc/quartus-free/pkg/quartus-free/opt/altera/18.1/nios2eds/bin/gnu/H-x86_64-pc-linux-gnu/bin/../lib/gcc/nios2-elf/5.3.0/libgcc.a(_udivdi3.o)
 .debug_aranges
                0x0000000000000748       0x20 /home/nathan/Documents/Misc/quartus-free/pkg/quartus-free/opt/altera/18.1/nios2eds/bin/gnu/H-x86_64-pc-linux-gnu/bin/../lib/gcc/nios2-elf/5.3.0/libgcc.a(_umoddi3.o)
 .debug_aranges
                0x0000000000000768       0x20 /home/nathan/Documents/Misc/quartus-free/pkg/quartus-free/opt/altera/18.1/nios2eds/bin/gnu/H-x86_64-pc-linux-gnu/bin/../lib/gcc/nios2-elf/5.3.0/libgcc.a(adddf3.o)
 .debug_aranges
                0x0000000000000788       0x20 /home/nathan/Documents/Misc/quartus-free/pkg/quartus-free/opt/altera/18.1/nios2eds/bin/gnu/H-x86_64-pc-linux-gnu/bin/../lib/gcc/nios2-elf/5.3.0/libgcc.a(divdf3.o)
 .debug_aranges
                0x00000000000007a8       0x20 /home/nathan/Documents/Misc/quartus-free/pkg/quartus-free/opt/altera/18.1/nios2eds/bin/gnu/H-x86_64-pc-linux-gnu/bin/../lib/gcc/nios2-elf/5.3.0/libgcc.a(eqdf2.o)
 .debug_aranges
                0x00000000000007c8       0x20 /home/nathan/Documents/Misc/quartus-free/pkg/quartus-free/opt/altera/18.1/nios2eds/bin/gnu/H-x86_64-pc-linux-gnu/bin/../lib/gcc/nios2-elf/5.3.0/libgcc.a(gedf2.o)
 .debug_aranges
                0x00000000000007e8       0x20 /home/nathan/Documents/Misc/quartus-free/pkg/quartus-free/opt/altera/18.1/nios2eds/bin/gnu/H-x86_64-pc-linux-gnu/bin/../lib/gcc/nios2-elf/5.3.0/libgcc.a(ledf2.o)
 .debug_aranges
                0x0000000000000808       0x20 /home/nathan/Documents/Misc/quartus-free/pkg/quartus-free/opt/altera/18.1/nios2eds/bin/gnu/H-x86_64-pc-linux-gnu/bin/../lib/gcc/nios2-elf/5.3.0/libgcc.a(muldf3.o)
 .debug_aranges
                0x0000000000000828       0x20 /home/nathan/Documents/Misc/quartus-free/pkg/quartus-free/opt/altera/18.1/nios2eds/bin/gnu/H-x86_64-pc-linux-gnu/bin/../lib/gcc/nios2-elf/5.3.0/libgcc.a(subdf3.o)
 .debug_aranges
                0x0000000000000848       0x20 /home/nathan/Documents/Misc/quartus-free/pkg/quartus-free/opt/altera/18.1/nios2eds/bin/gnu/H-x86_64-pc-linux-gnu/bin/../lib/gcc/nios2-elf/5.3.0/libgcc.a(fixdfsi.o)
 .debug_aranges
                0x0000000000000868       0x20 /home/nathan/Documents/Misc/quartus-free/pkg/quartus-free/opt/altera/18.1/nios2eds/bin/gnu/H-x86_64-pc-linux-gnu/bin/../lib/gcc/nios2-elf/5.3.0/libgcc.a(floatsidf.o)
 .debug_aranges
                0x0000000000000888       0x20 /home/nathan/Documents/Misc/quartus-free/pkg/quartus-free/opt/altera/18.1/nios2eds/bin/gnu/H-x86_64-pc-linux-gnu/bin/../lib/gcc/nios2-elf/5.3.0/libgcc.a(floatunsidf.o)
 .debug_aranges
                0x00000000000008a8       0x18 /home/nathan/Documents/Misc/quartus-free/pkg/quartus-free/opt/altera/18.1/nios2eds/bin/gnu/H-x86_64-pc-linux-gnu/bin/../lib/gcc/nios2-elf/5.3.0/libgcc.a(_clz.o)
 .debug_aranges
                0x00000000000008c0       0x20 /home/nathan/Documents/Misc/quartus-free/pkg/quartus-free/opt/altera/18.1/nios2eds/bin/gnu/H-x86_64-pc-linux-gnu/bin/../lib/gcc/nios2-elf/5.3.0/libgcc.a(_clzsi2.o)
 .debug_aranges
                0x00000000000008e0       0x20 /home/nathan/Documents/Cours/EPFL_RTES_CS476/Code/mini_project_v2/sw/mini_project_v3_bsp//libucosii_bsp.a(alt_close.o)
 .debug_aranges
                0x0000000000000900       0x20 /home/nathan/Documents/Cours/EPFL_RTES_CS476/Code/mini_project_v2/sw/mini_project_v3_bsp//libucosii_bsp.a(alt_dev.o)
 .debug_aranges
                0x0000000000000920       0x18 /home/nathan/Documents/Cours/EPFL_RTES_CS476/Code/mini_project_v2/sw/mini_project_v3_bsp//libucosii_bsp.a(alt_errno.o)
 .debug_aranges
                0x0000000000000938       0x20 /home/nathan/Documents/Cours/EPFL_RTES_CS476/Code/mini_project_v2/sw/mini_project_v3_bsp//libucosii_bsp.a(alt_fstat.o)
 .debug_aranges
                0x0000000000000958       0x20 /home/nathan/Documents/Cours/EPFL_RTES_CS476/Code/mini_project_v2/sw/mini_project_v3_bsp//libucosii_bsp.a(alt_isatty.o)
 .debug_aranges
                0x0000000000000978       0x20 /home/nathan/Documents/Cours/EPFL_RTES_CS476/Code/mini_project_v2/sw/mini_project_v3_bsp//libucosii_bsp.a(alt_load.o)
 .debug_aranges
                0x0000000000000998       0x20 /home/nathan/Documents/Cours/EPFL_RTES_CS476/Code/mini_project_v2/sw/mini_project_v3_bsp//libucosii_bsp.a(alt_lseek.o)
 .debug_aranges
                0x00000000000009b8       0x20 /home/nathan/Documents/Cours/EPFL_RTES_CS476/Code/mini_project_v2/sw/mini_project_v3_bsp//libucosii_bsp.a(alt_main.o)
 .debug_aranges
                0x00000000000009d8       0x20 /home/nathan/Documents/Cours/EPFL_RTES_CS476/Code/mini_project_v2/sw/mini_project_v3_bsp//libucosii_bsp.a(alt_read.o)
 .debug_aranges
                0x00000000000009f8       0x20 /home/nathan/Documents/Cours/EPFL_RTES_CS476/Code/mini_project_v2/sw/mini_project_v3_bsp//libucosii_bsp.a(alt_release_fd.o)
 .debug_aranges
                0x0000000000000a18       0x20 /home/nathan/Documents/Cours/EPFL_RTES_CS476/Code/mini_project_v2/sw/mini_project_v3_bsp//libucosii_bsp.a(alt_sbrk.o)
 .debug_aranges
                0x0000000000000a38       0x20 /home/nathan/Documents/Cours/EPFL_RTES_CS476/Code/mini_project_v2/sw/mini_project_v3_bsp//libucosii_bsp.a(alt_write.o)
 .debug_aranges
                0x0000000000000a58       0x20 /home/nathan/Documents/Cours/EPFL_RTES_CS476/Code/mini_project_v2/sw/mini_project_v3_bsp//libucosii_bsp.a(alt_env_lock.o)
 .debug_aranges
                0x0000000000000a78       0x20 /home/nathan/Documents/Cours/EPFL_RTES_CS476/Code/mini_project_v2/sw/mini_project_v3_bsp//libucosii_bsp.a(alt_malloc_lock.o)
 .debug_aranges
                0x0000000000000a98       0x20 /home/nathan/Documents/Cours/EPFL_RTES_CS476/Code/mini_project_v2/sw/mini_project_v3_bsp//libucosii_bsp.a(os_core.o)
 .debug_aranges
                0x0000000000000ab8       0x20 /home/nathan/Documents/Cours/EPFL_RTES_CS476/Code/mini_project_v2/sw/mini_project_v3_bsp//libucosii_bsp.a(os_dbg.o)
 .debug_aranges
                0x0000000000000ad8       0x20 /home/nathan/Documents/Cours/EPFL_RTES_CS476/Code/mini_project_v2/sw/mini_project_v3_bsp//libucosii_bsp.a(os_flag.o)
 .debug_aranges
                0x0000000000000af8       0x20 /home/nathan/Documents/Cours/EPFL_RTES_CS476/Code/mini_project_v2/sw/mini_project_v3_bsp//libucosii_bsp.a(os_mem.o)
 .debug_aranges
                0x0000000000000b18       0x20 /home/nathan/Documents/Cours/EPFL_RTES_CS476/Code/mini_project_v2/sw/mini_project_v3_bsp//libucosii_bsp.a(os_q.o)
 .debug_aranges
                0x0000000000000b38       0x20 /home/nathan/Documents/Cours/EPFL_RTES_CS476/Code/mini_project_v2/sw/mini_project_v3_bsp//libucosii_bsp.a(os_sem.o)
 .debug_aranges
                0x0000000000000b58       0x20 /home/nathan/Documents/Cours/EPFL_RTES_CS476/Code/mini_project_v2/sw/mini_project_v3_bsp//libucosii_bsp.a(os_task.o)
 .debug_aranges
                0x0000000000000b78       0x20 /home/nathan/Documents/Cours/EPFL_RTES_CS476/Code/mini_project_v2/sw/mini_project_v3_bsp//libucosii_bsp.a(os_time.o)
 .debug_aranges
                0x0000000000000b98       0x20 /home/nathan/Documents/Cours/EPFL_RTES_CS476/Code/mini_project_v2/sw/mini_project_v3_bsp//libucosii_bsp.a(alt_sys_init.o)
 .debug_aranges
                0x0000000000000bb8       0x20 /home/nathan/Documents/Cours/EPFL_RTES_CS476/Code/mini_project_v2/sw/mini_project_v3_bsp//libucosii_bsp.a(altera_avalon_jtag_uart_fd.o)
 .debug_aranges
                0x0000000000000bd8       0x20 /home/nathan/Documents/Cours/EPFL_RTES_CS476/Code/mini_project_v2/sw/mini_project_v3_bsp//libucosii_bsp.a(altera_avalon_jtag_uart_init.o)
 .debug_aranges
                0x0000000000000bf8       0x20 /home/nathan/Documents/Cours/EPFL_RTES_CS476/Code/mini_project_v2/sw/mini_project_v3_bsp//libucosii_bsp.a(altera_avalon_jtag_uart_ioctl.o)
 .debug_aranges
                0x0000000000000c18       0x20 /home/nathan/Documents/Cours/EPFL_RTES_CS476/Code/mini_project_v2/sw/mini_project_v3_bsp//libucosii_bsp.a(altera_avalon_jtag_uart_read.o)
 .debug_aranges
                0x0000000000000c38       0x20 /home/nathan/Documents/Cours/EPFL_RTES_CS476/Code/mini_project_v2/sw/mini_project_v3_bsp//libucosii_bsp.a(altera_avalon_jtag_uart_write.o)
 .debug_aranges
                0x0000000000000c58       0x20 /home/nathan/Documents/Cours/EPFL_RTES_CS476/Code/mini_project_v2/sw/mini_project_v3_bsp//libucosii_bsp.a(altera_avalon_timer_sc.o)
 .debug_aranges
                0x0000000000000c78       0x20 /home/nathan/Documents/Cours/EPFL_RTES_CS476/Code/mini_project_v2/sw/mini_project_v3_bsp//libucosii_bsp.a(alt_alarm_start.o)
 .debug_aranges
                0x0000000000000c98       0x20 /home/nathan/Documents/Cours/EPFL_RTES_CS476/Code/mini_project_v2/sw/mini_project_v3_bsp//libucosii_bsp.a(alt_dcache_flush_all.o)
 .debug_aranges
                0x0000000000000cb8       0x20 /home/nathan/Documents/Cours/EPFL_RTES_CS476/Code/mini_project_v2/sw/mini_project_v3_bsp//libucosii_bsp.a(alt_dev_llist_insert.o)
 .debug_aranges
                0x0000000000000cd8       0x20 /home/nathan/Documents/Cours/EPFL_RTES_CS476/Code/mini_project_v2/sw/mini_project_v3_bsp//libucosii_bsp.a(alt_do_ctors.o)
 .debug_aranges
                0x0000000000000cf8       0x20 /home/nathan/Documents/Cours/EPFL_RTES_CS476/Code/mini_project_v2/sw/mini_project_v3_bsp//libucosii_bsp.a(alt_do_dtors.o)
 .debug_aranges
                0x0000000000000d18       0x20 /home/nathan/Documents/Cours/EPFL_RTES_CS476/Code/mini_project_v2/sw/mini_project_v3_bsp//libucosii_bsp.a(alt_icache_flush_all.o)
 .debug_aranges
                0x0000000000000d38       0x20 /home/nathan/Documents/Cours/EPFL_RTES_CS476/Code/mini_project_v2/sw/mini_project_v3_bsp//libucosii_bsp.a(alt_iic.o)
 .debug_aranges
                0x0000000000000d58       0x20 /home/nathan/Documents/Cours/EPFL_RTES_CS476/Code/mini_project_v2/sw/mini_project_v3_bsp//libucosii_bsp.a(alt_iic_isr_register.o)
 .debug_aranges
                0x0000000000000d78       0x20 /home/nathan/Documents/Cours/EPFL_RTES_CS476/Code/mini_project_v2/sw/mini_project_v3_bsp//libucosii_bsp.a(alt_io_redirect.o)
 .debug_aranges
                0x0000000000000d98       0x30 /home/nathan/Documents/Cours/EPFL_RTES_CS476/Code/mini_project_v2/sw/mini_project_v3_bsp//libucosii_bsp.a(alt_irq_entry.o)
 .debug_aranges
                0x0000000000000dc8       0x20 /home/nathan/Documents/Cours/EPFL_RTES_CS476/Code/mini_project_v2/sw/mini_project_v3_bsp//libucosii_bsp.a(alt_irq_handler.o)
 .debug_aranges
                0x0000000000000de8       0x18 /home/nathan/Documents/Cours/EPFL_RTES_CS476/Code/mini_project_v2/sw/mini_project_v3_bsp//libucosii_bsp.a(alt_irq_vars.o)
 .debug_aranges
                0x0000000000000e00       0x20 /home/nathan/Documents/Cours/EPFL_RTES_CS476/Code/mini_project_v2/sw/mini_project_v3_bsp//libucosii_bsp.a(alt_open.o)
 .debug_aranges
                0x0000000000000e20       0x20 /home/nathan/Documents/Cours/EPFL_RTES_CS476/Code/mini_project_v2/sw/mini_project_v3_bsp//libucosii_bsp.a(alt_tick.o)
 .debug_aranges
                0x0000000000000e40       0x20 /home/nathan/Documents/Cours/EPFL_RTES_CS476/Code/mini_project_v2/sw/mini_project_v3_bsp//libucosii_bsp.a(altera_nios2_gen2_irq.o)
 .debug_aranges
                0x0000000000000e60       0x20 /home/nathan/Documents/Cours/EPFL_RTES_CS476/Code/mini_project_v2/sw/mini_project_v3_bsp//libucosii_bsp.a(os_cpu_a.o)
 .debug_aranges
                0x0000000000000e80       0x20 /home/nathan/Documents/Cours/EPFL_RTES_CS476/Code/mini_project_v2/sw/mini_project_v3_bsp//libucosii_bsp.a(os_cpu_c.o)
 .debug_aranges
                0x0000000000000ea0       0x38 /home/nathan/Documents/Cours/EPFL_RTES_CS476/Code/mini_project_v2/sw/mini_project_v3_bsp//libucosii_bsp.a(alt_exception_entry.o)
 .debug_aranges
                0x0000000000000ed8       0x20 /home/nathan/Documents/Cours/EPFL_RTES_CS476/Code/mini_project_v2/sw/mini_project_v3_bsp//libucosii_bsp.a(alt_find_dev.o)
 .debug_aranges
                0x0000000000000ef8       0x20 /home/nathan/Documents/Cours/EPFL_RTES_CS476/Code/mini_project_v2/sw/mini_project_v3_bsp//libucosii_bsp.a(alt_find_file.o)
 .debug_aranges
                0x0000000000000f18       0x20 /home/nathan/Documents/Cours/EPFL_RTES_CS476/Code/mini_project_v2/sw/mini_project_v3_bsp//libucosii_bsp.a(alt_get_fd.o)
 .debug_aranges
                0x0000000000000f38       0x28 /home/nathan/Documents/Cours/EPFL_RTES_CS476/Code/mini_project_v2/sw/mini_project_v3_bsp//libucosii_bsp.a(alt_instruction_exception_entry.o)
 .debug_aranges
                0x0000000000000f60       0x20 /home/nathan/Documents/Misc/quartus-free/pkg/quartus-free/opt/altera/18.1/nios2eds/bin/gnu/H-x86_64-pc-linux-gnu/bin/../lib/gcc/nios2-elf/5.3.0/../../../../../H-x86_64-pc-linux-gnu/nios2-elf/lib/libc.a(lib_a-atexit.o)
 .debug_aranges
                0x0000000000000f80       0x20 /home/nathan/Documents/Misc/quartus-free/pkg/quartus-free/opt/altera/18.1/nios2eds/bin/gnu/H-x86_64-pc-linux-gnu/bin/../lib/gcc/nios2-elf/5.3.0/../../../../../H-x86_64-pc-linux-gnu/nios2-elf/lib/libc.a(lib_a-exit.o)
 .debug_aranges
                0x0000000000000fa0       0x20 /home/nathan/Documents/Misc/quartus-free/pkg/quartus-free/opt/altera/18.1/nios2eds/bin/gnu/H-x86_64-pc-linux-gnu/bin/../lib/gcc/nios2-elf/5.3.0/../../../../../H-x86_64-pc-linux-gnu/nios2-elf/lib/libc.a(lib_a-memcmp.o)
 .debug_aranges
                0x0000000000000fc0       0x20 /home/nathan/Documents/Misc/quartus-free/pkg/quartus-free/opt/altera/18.1/nios2eds/bin/gnu/H-x86_64-pc-linux-gnu/bin/../lib/gcc/nios2-elf/5.3.0/../../../../../H-x86_64-pc-linux-gnu/nios2-elf/lib/libc.a(lib_a-__atexit.o)
 .debug_aranges
                0x0000000000000fe0       0x20 /home/nathan/Documents/Misc/quartus-free/pkg/quartus-free/opt/altera/18.1/nios2eds/bin/gnu/H-x86_64-pc-linux-gnu/bin/../lib/gcc/nios2-elf/5.3.0/../../../../../H-x86_64-pc-linux-gnu/nios2-elf/lib/libc.a(lib_a-__call_atexit.o)
 .debug_aranges
                0x0000000000001000       0x20 /home/nathan/Documents/Cours/EPFL_RTES_CS476/Code/mini_project_v2/sw/mini_project_v3_bsp//libucosii_bsp.a(alt_exit.o)

.debug_pubnames
 *(.debug_pubnames)

.debug_info     0x0000000000000000    0x2d7cd
 *(.debug_info .gnu.linkonce.wi.*)
 .debug_info    0x0000000000000000       0x8d /home/nathan/Documents/Cours/EPFL_RTES_CS476/Code/mini_project_v2/sw/mini_project_v3_bsp//obj/HAL/src/crt0.o
 .debug_info    0x000000000000008d      0x547 obj/default/mini_project_with_fake_camera.o
 .debug_info    0x00000000000005d4      0x2c6 /home/nathan/Documents/Misc/quartus-free/pkg/quartus-free/opt/altera/18.1/nios2eds/bin/gnu/H-x86_64-pc-linux-gnu/bin/../lib/gcc/nios2-elf/5.3.0/libgcc.a(lib2-divmod.o)
 .debug_info    0x000000000000089a      0x911 /home/nathan/Documents/Misc/quartus-free/pkg/quartus-free/opt/altera/18.1/nios2eds/bin/gnu/H-x86_64-pc-linux-gnu/bin/../lib/gcc/nios2-elf/5.3.0/../../../../../H-x86_64-pc-linux-gnu/nios2-elf/lib/libc.a(lib_a-malloc.o)
 .debug_info    0x00000000000011ab      0xd57 /home/nathan/Documents/Misc/quartus-free/pkg/quartus-free/opt/altera/18.1/nios2eds/bin/gnu/H-x86_64-pc-linux-gnu/bin/../lib/gcc/nios2-elf/5.3.0/../../../../../H-x86_64-pc-linux-gnu/nios2-elf/lib/libc.a(lib_a-mallocr.o)
 .debug_info    0x0000000000001f02      0x991 /home/nathan/Documents/Misc/quartus-free/pkg/quartus-free/opt/altera/18.1/nios2eds/bin/gnu/H-x86_64-pc-linux-gnu/bin/../lib/gcc/nios2-elf/5.3.0/../../../../../H-x86_64-pc-linux-gnu/nios2-elf/lib/libc.a(lib_a-printf.o)
 .debug_info    0x0000000000002893      0xa38 /home/nathan/Documents/Misc/quartus-free/pkg/quartus-free/opt/altera/18.1/nios2eds/bin/gnu/H-x86_64-pc-linux-gnu/bin/../lib/gcc/nios2-elf/5.3.0/../../../../../H-x86_64-pc-linux-gnu/nios2-elf/lib/libc.a(lib_a-puts.o)
 .debug_info    0x00000000000032cb      0x900 /home/nathan/Documents/Misc/quartus-free/pkg/quartus-free/opt/altera/18.1/nios2eds/bin/gnu/H-x86_64-pc-linux-gnu/bin/../lib/gcc/nios2-elf/5.3.0/../../../../../H-x86_64-pc-linux-gnu/nios2-elf/lib/libc.a(lib_a-sbrkr.o)
 .debug_info    0x0000000000003bcb       0xe2 /home/nathan/Documents/Misc/quartus-free/pkg/quartus-free/opt/altera/18.1/nios2eds/bin/gnu/H-x86_64-pc-linux-gnu/bin/../lib/gcc/nios2-elf/5.3.0/../../../../../H-x86_64-pc-linux-gnu/nios2-elf/lib/libc.a(lib_a-strlen.o)
 .debug_info    0x0000000000003cad     0x16b8 /home/nathan/Documents/Misc/quartus-free/pkg/quartus-free/opt/altera/18.1/nios2eds/bin/gnu/H-x86_64-pc-linux-gnu/bin/../lib/gcc/nios2-elf/5.3.0/../../../../../H-x86_64-pc-linux-gnu/nios2-elf/lib/libc.a(lib_a-vfprintf.o)
 .debug_info    0x0000000000005365      0x936 /home/nathan/Documents/Misc/quartus-free/pkg/quartus-free/opt/altera/18.1/nios2eds/bin/gnu/H-x86_64-pc-linux-gnu/bin/../lib/gcc/nios2-elf/5.3.0/../../../../../H-x86_64-pc-linux-gnu/nios2-elf/lib/libc.a(lib_a-wsetup.o)
 .debug_info    0x0000000000005c9b     0x1247 /home/nathan/Documents/Misc/quartus-free/pkg/quartus-free/opt/altera/18.1/nios2eds/bin/gnu/H-x86_64-pc-linux-gnu/bin/../lib/gcc/nios2-elf/5.3.0/../../../../../H-x86_64-pc-linux-gnu/nios2-elf/lib/libc.a(lib_a-dtoa.o)
 .debug_info    0x0000000000006ee2      0xa93 /home/nathan/Documents/Misc/quartus-free/pkg/quartus-free/opt/altera/18.1/nios2eds/bin/gnu/H-x86_64-pc-linux-gnu/bin/../lib/gcc/nios2-elf/5.3.0/../../../../../H-x86_64-pc-linux-gnu/nios2-elf/lib/libc.a(lib_a-fflush.o)
 .debug_info    0x0000000000007975      0xd37 /home/nathan/Documents/Misc/quartus-free/pkg/quartus-free/opt/altera/18.1/nios2eds/bin/gnu/H-x86_64-pc-linux-gnu/bin/../lib/gcc/nios2-elf/5.3.0/../../../../../H-x86_64-pc-linux-gnu/nios2-elf/lib/libc.a(lib_a-findfp.o)
 .debug_info    0x00000000000086ac      0xbf7 /home/nathan/Documents/Misc/quartus-free/pkg/quartus-free/opt/altera/18.1/nios2eds/bin/gnu/H-x86_64-pc-linux-gnu/bin/../lib/gcc/nios2-elf/5.3.0/../../../../../H-x86_64-pc-linux-gnu/nios2-elf/lib/libc.a(lib_a-freer.o)
 .debug_info    0x00000000000092a3      0xbb8 /home/nathan/Documents/Misc/quartus-free/pkg/quartus-free/opt/altera/18.1/nios2eds/bin/gnu/H-x86_64-pc-linux-gnu/bin/../lib/gcc/nios2-elf/5.3.0/../../../../../H-x86_64-pc-linux-gnu/nios2-elf/lib/libc.a(lib_a-fvwrite.o)
 .debug_info    0x0000000000009e5b      0x9b0 /home/nathan/Documents/Misc/quartus-free/pkg/quartus-free/opt/altera/18.1/nios2eds/bin/gnu/H-x86_64-pc-linux-gnu/bin/../lib/gcc/nios2-elf/5.3.0/../../../../../H-x86_64-pc-linux-gnu/nios2-elf/lib/libc.a(lib_a-fwalk.o)
 .debug_info    0x000000000000a80b      0x8a1 /home/nathan/Documents/Misc/quartus-free/pkg/quartus-free/opt/altera/18.1/nios2eds/bin/gnu/H-x86_64-pc-linux-gnu/bin/../lib/gcc/nios2-elf/5.3.0/../../../../../H-x86_64-pc-linux-gnu/nios2-elf/lib/libc.a(lib_a-impure.o)
 .debug_info    0x000000000000b0ac       0x8a /home/nathan/Documents/Misc/quartus-free/pkg/quartus-free/opt/altera/18.1/nios2eds/bin/gnu/H-x86_64-pc-linux-gnu/bin/../lib/gcc/nios2-elf/5.3.0/../../../../../H-x86_64-pc-linux-gnu/nios2-elf/lib/libc.a(lib_a-int_errno.o)
 .debug_info    0x000000000000b136      0xc25 /home/nathan/Documents/Misc/quartus-free/pkg/quartus-free/opt/altera/18.1/nios2eds/bin/gnu/H-x86_64-pc-linux-gnu/bin/../lib/gcc/nios2-elf/5.3.0/../../../../../H-x86_64-pc-linux-gnu/nios2-elf/lib/libc.a(lib_a-locale.o)
 .debug_info    0x000000000000bd5b      0xad8 /home/nathan/Documents/Misc/quartus-free/pkg/quartus-free/opt/altera/18.1/nios2eds/bin/gnu/H-x86_64-pc-linux-gnu/bin/../lib/gcc/nios2-elf/5.3.0/../../../../../H-x86_64-pc-linux-gnu/nios2-elf/lib/libc.a(lib_a-makebuf.o)
 .debug_info    0x000000000000c833      0x132 /home/nathan/Documents/Misc/quartus-free/pkg/quartus-free/opt/altera/18.1/nios2eds/bin/gnu/H-x86_64-pc-linux-gnu/bin/../lib/gcc/nios2-elf/5.3.0/../../../../../H-x86_64-pc-linux-gnu/nios2-elf/lib/libc.a(lib_a-memchr.o)
 .debug_info    0x000000000000c965      0x144 /home/nathan/Documents/Misc/quartus-free/pkg/quartus-free/opt/altera/18.1/nios2eds/bin/gnu/H-x86_64-pc-linux-gnu/bin/../lib/gcc/nios2-elf/5.3.0/../../../../../H-x86_64-pc-linux-gnu/nios2-elf/lib/libc.a(lib_a-memcpy.o)
 .debug_info    0x000000000000caa9      0x13a /home/nathan/Documents/Misc/quartus-free/pkg/quartus-free/opt/altera/18.1/nios2eds/bin/gnu/H-x86_64-pc-linux-gnu/bin/../lib/gcc/nios2-elf/5.3.0/../../../../../H-x86_64-pc-linux-gnu/nios2-elf/lib/libc.a(lib_a-memmove.o)
 .debug_info    0x000000000000cbe3      0x121 /home/nathan/Documents/Misc/quartus-free/pkg/quartus-free/opt/altera/18.1/nios2eds/bin/gnu/H-x86_64-pc-linux-gnu/bin/../lib/gcc/nios2-elf/5.3.0/../../../../../H-x86_64-pc-linux-gnu/nios2-elf/lib/libc.a(lib_a-memset.o)
 .debug_info    0x000000000000cd04     0x16b7 /home/nathan/Documents/Misc/quartus-free/pkg/quartus-free/opt/altera/18.1/nios2eds/bin/gnu/H-x86_64-pc-linux-gnu/bin/../lib/gcc/nios2-elf/5.3.0/../../../../../H-x86_64-pc-linux-gnu/nios2-elf/lib/libc.a(lib_a-mprec.o)
 .debug_info    0x000000000000e3bb      0xc6b /home/nathan/Documents/Misc/quartus-free/pkg/quartus-free/opt/altera/18.1/nios2eds/bin/gnu/H-x86_64-pc-linux-gnu/bin/../lib/gcc/nios2-elf/5.3.0/../../../../../H-x86_64-pc-linux-gnu/nios2-elf/lib/libc.a(lib_a-reallocr.o)
 .debug_info    0x000000000000f026       0xdc /home/nathan/Documents/Misc/quartus-free/pkg/quartus-free/opt/altera/18.1/nios2eds/bin/gnu/H-x86_64-pc-linux-gnu/bin/../lib/gcc/nios2-elf/5.3.0/../../../../../H-x86_64-pc-linux-gnu/nios2-elf/lib/libc.a(lib_a-s_fpclassify.o)
 .debug_info    0x000000000000f102      0xb32 /home/nathan/Documents/Misc/quartus-free/pkg/quartus-free/opt/altera/18.1/nios2eds/bin/gnu/H-x86_64-pc-linux-gnu/bin/../lib/gcc/nios2-elf/5.3.0/../../../../../H-x86_64-pc-linux-gnu/nios2-elf/lib/libc.a(lib_a-stdio.o)
 .debug_info    0x000000000000fc34       0xe4 /home/nathan/Documents/Misc/quartus-free/pkg/quartus-free/opt/altera/18.1/nios2eds/bin/gnu/H-x86_64-pc-linux-gnu/bin/../lib/gcc/nios2-elf/5.3.0/../../../../../H-x86_64-pc-linux-gnu/nios2-elf/lib/libc.a(lib_a-strcmp.o)
 .debug_info    0x000000000000fd18     0x1535 /home/nathan/Documents/Misc/quartus-free/pkg/quartus-free/opt/altera/18.1/nios2eds/bin/gnu/H-x86_64-pc-linux-gnu/bin/../lib/gcc/nios2-elf/5.3.0/../../../../../H-x86_64-pc-linux-gnu/nios2-elf/lib/libc.a(lib_a-vfiprintf.o)
 .debug_info    0x000000000001124d      0x928 /home/nathan/Documents/Misc/quartus-free/pkg/quartus-free/opt/altera/18.1/nios2eds/bin/gnu/H-x86_64-pc-linux-gnu/bin/../lib/gcc/nios2-elf/5.3.0/../../../../../H-x86_64-pc-linux-gnu/nios2-elf/lib/libc.a(lib_a-writer.o)
 .debug_info    0x0000000000011b75      0x8df /home/nathan/Documents/Misc/quartus-free/pkg/quartus-free/opt/altera/18.1/nios2eds/bin/gnu/H-x86_64-pc-linux-gnu/bin/../lib/gcc/nios2-elf/5.3.0/../../../../../H-x86_64-pc-linux-gnu/nios2-elf/lib/libc.a(closer.o)
 .debug_info    0x0000000000012454      0x9d5 /home/nathan/Documents/Misc/quartus-free/pkg/quartus-free/opt/altera/18.1/nios2eds/bin/gnu/H-x86_64-pc-linux-gnu/bin/../lib/gcc/nios2-elf/5.3.0/../../../../../H-x86_64-pc-linux-gnu/nios2-elf/lib/libc.a(lib_a-callocr.o)
 .debug_info    0x0000000000012e29      0xa23 /home/nathan/Documents/Misc/quartus-free/pkg/quartus-free/opt/altera/18.1/nios2eds/bin/gnu/H-x86_64-pc-linux-gnu/bin/../lib/gcc/nios2-elf/5.3.0/../../../../../H-x86_64-pc-linux-gnu/nios2-elf/lib/libc.a(lib_a-fclose.o)
 .debug_info    0x000000000001384c      0xad4 /home/nathan/Documents/Misc/quartus-free/pkg/quartus-free/opt/altera/18.1/nios2eds/bin/gnu/H-x86_64-pc-linux-gnu/bin/../lib/gcc/nios2-elf/5.3.0/../../../../../H-x86_64-pc-linux-gnu/nios2-elf/lib/libc.a(lib_a-fputwc.o)
 .debug_info    0x0000000000014320      0xa5d /home/nathan/Documents/Misc/quartus-free/pkg/quartus-free/opt/altera/18.1/nios2eds/bin/gnu/H-x86_64-pc-linux-gnu/bin/../lib/gcc/nios2-elf/5.3.0/../../../../../H-x86_64-pc-linux-gnu/nios2-elf/lib/libc.a(lib_a-fstatr.o)
 .debug_info    0x0000000000014d7d      0x8df /home/nathan/Documents/Misc/quartus-free/pkg/quartus-free/opt/altera/18.1/nios2eds/bin/gnu/H-x86_64-pc-linux-gnu/bin/../lib/gcc/nios2-elf/5.3.0/../../../../../H-x86_64-pc-linux-gnu/nios2-elf/lib/libc.a(lib_a-isattyr.o)
 .debug_info    0x000000000001565c      0x90b /home/nathan/Documents/Misc/quartus-free/pkg/quartus-free/opt/altera/18.1/nios2eds/bin/gnu/H-x86_64-pc-linux-gnu/bin/../lib/gcc/nios2-elf/5.3.0/../../../../../H-x86_64-pc-linux-gnu/nios2-elf/lib/libc.a(lib_a-lseekr.o)
 .debug_info    0x0000000000015f67      0x921 /home/nathan/Documents/Misc/quartus-free/pkg/quartus-free/opt/altera/18.1/nios2eds/bin/gnu/H-x86_64-pc-linux-gnu/bin/../lib/gcc/nios2-elf/5.3.0/../../../../../H-x86_64-pc-linux-gnu/nios2-elf/lib/libc.a(lib_a-readr.o)
 .debug_info    0x0000000000016888      0x9be /home/nathan/Documents/Misc/quartus-free/pkg/quartus-free/opt/altera/18.1/nios2eds/bin/gnu/H-x86_64-pc-linux-gnu/bin/../lib/gcc/nios2-elf/5.3.0/../../../../../H-x86_64-pc-linux-gnu/nios2-elf/lib/libc.a(lib_a-wbuf.o)
 .debug_info    0x0000000000017246      0xa82 /home/nathan/Documents/Misc/quartus-free/pkg/quartus-free/opt/altera/18.1/nios2eds/bin/gnu/H-x86_64-pc-linux-gnu/bin/../lib/gcc/nios2-elf/5.3.0/../../../../../H-x86_64-pc-linux-gnu/nios2-elf/lib/libc.a(lib_a-wcrtomb.o)
 .debug_info    0x0000000000017cc8      0x9b1 /home/nathan/Documents/Misc/quartus-free/pkg/quartus-free/opt/altera/18.1/nios2eds/bin/gnu/H-x86_64-pc-linux-gnu/bin/../lib/gcc/nios2-elf/5.3.0/../../../../../H-x86_64-pc-linux-gnu/nios2-elf/lib/libc.a(lib_a-wctomb_r.o)
 .debug_info    0x0000000000018679      0x70e /home/nathan/Documents/Misc/quartus-free/pkg/quartus-free/opt/altera/18.1/nios2eds/bin/gnu/H-x86_64-pc-linux-gnu/bin/../lib/gcc/nios2-elf/5.3.0/libgcc.a(_udivdi3.o)
 .debug_info    0x0000000000018d87      0x765 /home/nathan/Documents/Misc/quartus-free/pkg/quartus-free/opt/altera/18.1/nios2eds/bin/gnu/H-x86_64-pc-linux-gnu/bin/../lib/gcc/nios2-elf/5.3.0/libgcc.a(_umoddi3.o)
 .debug_info    0x00000000000194ec      0x4a2 /home/nathan/Documents/Misc/quartus-free/pkg/quartus-free/opt/altera/18.1/nios2eds/bin/gnu/H-x86_64-pc-linux-gnu/bin/../lib/gcc/nios2-elf/5.3.0/libgcc.a(adddf3.o)
 .debug_info    0x000000000001998e      0x5c7 /home/nathan/Documents/Misc/quartus-free/pkg/quartus-free/opt/altera/18.1/nios2eds/bin/gnu/H-x86_64-pc-linux-gnu/bin/../lib/gcc/nios2-elf/5.3.0/libgcc.a(divdf3.o)
 .debug_info    0x0000000000019f55      0x1e2 /home/nathan/Documents/Misc/quartus-free/pkg/quartus-free/opt/altera/18.1/nios2eds/bin/gnu/H-x86_64-pc-linux-gnu/bin/../lib/gcc/nios2-elf/5.3.0/libgcc.a(eqdf2.o)
 .debug_info    0x000000000001a137      0x202 /home/nathan/Documents/Misc/quartus-free/pkg/quartus-free/opt/altera/18.1/nios2eds/bin/gnu/H-x86_64-pc-linux-gnu/bin/../lib/gcc/nios2-elf/5.3.0/libgcc.a(gedf2.o)
 .debug_info    0x000000000001a339      0x204 /home/nathan/Documents/Misc/quartus-free/pkg/quartus-free/opt/altera/18.1/nios2eds/bin/gnu/H-x86_64-pc-linux-gnu/bin/../lib/gcc/nios2-elf/5.3.0/libgcc.a(ledf2.o)
 .debug_info    0x000000000001a53d      0x5f5 /home/nathan/Documents/Misc/quartus-free/pkg/quartus-free/opt/altera/18.1/nios2eds/bin/gnu/H-x86_64-pc-linux-gnu/bin/../lib/gcc/nios2-elf/5.3.0/libgcc.a(muldf3.o)
 .debug_info    0x000000000001ab32      0x4a2 /home/nathan/Documents/Misc/quartus-free/pkg/quartus-free/opt/altera/18.1/nios2eds/bin/gnu/H-x86_64-pc-linux-gnu/bin/../lib/gcc/nios2-elf/5.3.0/libgcc.a(subdf3.o)
 .debug_info    0x000000000001afd4      0x1ae /home/nathan/Documents/Misc/quartus-free/pkg/quartus-free/opt/altera/18.1/nios2eds/bin/gnu/H-x86_64-pc-linux-gnu/bin/../lib/gcc/nios2-elf/5.3.0/libgcc.a(fixdfsi.o)
 .debug_info    0x000000000001b182      0x1bc /home/nathan/Documents/Misc/quartus-free/pkg/quartus-free/opt/altera/18.1/nios2eds/bin/gnu/H-x86_64-pc-linux-gnu/bin/../lib/gcc/nios2-elf/5.3.0/libgcc.a(floatsidf.o)
 .debug_info    0x000000000001b33e      0x1b0 /home/nathan/Documents/Misc/quartus-free/pkg/quartus-free/opt/altera/18.1/nios2eds/bin/gnu/H-x86_64-pc-linux-gnu/bin/../lib/gcc/nios2-elf/5.3.0/libgcc.a(floatunsidf.o)
 .debug_info    0x000000000001b4ee       0xb2 /home/nathan/Documents/Misc/quartus-free/pkg/quartus-free/opt/altera/18.1/nios2eds/bin/gnu/H-x86_64-pc-linux-gnu/bin/../lib/gcc/nios2-elf/5.3.0/libgcc.a(_clz.o)
 .debug_info    0x000000000001b5a0      0x124 /home/nathan/Documents/Misc/quartus-free/pkg/quartus-free/opt/altera/18.1/nios2eds/bin/gnu/H-x86_64-pc-linux-gnu/bin/../lib/gcc/nios2-elf/5.3.0/libgcc.a(_clzsi2.o)
 .debug_info    0x000000000001b6c4      0x355 /home/nathan/Documents/Cours/EPFL_RTES_CS476/Code/mini_project_v2/sw/mini_project_v3_bsp//libucosii_bsp.a(alt_close.o)
 .debug_info    0x000000000001ba19      0x585 /home/nathan/Documents/Cours/EPFL_RTES_CS476/Code/mini_project_v2/sw/mini_project_v3_bsp//libucosii_bsp.a(alt_dev.o)
 .debug_info    0x000000000001bf9e       0xa6 /home/nathan/Documents/Cours/EPFL_RTES_CS476/Code/mini_project_v2/sw/mini_project_v3_bsp//libucosii_bsp.a(alt_errno.o)
 .debug_info    0x000000000001c044      0x4bc /home/nathan/Documents/Cours/EPFL_RTES_CS476/Code/mini_project_v2/sw/mini_project_v3_bsp//libucosii_bsp.a(alt_fstat.o)
 .debug_info    0x000000000001c500      0x4bf /home/nathan/Documents/Cours/EPFL_RTES_CS476/Code/mini_project_v2/sw/mini_project_v3_bsp//libucosii_bsp.a(alt_isatty.o)
 .debug_info    0x000000000001c9bf      0x145 /home/nathan/Documents/Cours/EPFL_RTES_CS476/Code/mini_project_v2/sw/mini_project_v3_bsp//libucosii_bsp.a(alt_load.o)
 .debug_info    0x000000000001cb04      0x386 /home/nathan/Documents/Cours/EPFL_RTES_CS476/Code/mini_project_v2/sw/mini_project_v3_bsp//libucosii_bsp.a(alt_lseek.o)
 .debug_info    0x000000000001ce8a      0x26d /home/nathan/Documents/Cours/EPFL_RTES_CS476/Code/mini_project_v2/sw/mini_project_v3_bsp//libucosii_bsp.a(alt_main.o)
 .debug_info    0x000000000001d0f7      0x4e4 /home/nathan/Documents/Cours/EPFL_RTES_CS476/Code/mini_project_v2/sw/mini_project_v3_bsp//libucosii_bsp.a(alt_read.o)
 .debug_info    0x000000000001d5db      0x2f9 /home/nathan/Documents/Cours/EPFL_RTES_CS476/Code/mini_project_v2/sw/mini_project_v3_bsp//libucosii_bsp.a(alt_release_fd.o)
 .debug_info    0x000000000001d8d4      0x1ac /home/nathan/Documents/Cours/EPFL_RTES_CS476/Code/mini_project_v2/sw/mini_project_v3_bsp//libucosii_bsp.a(alt_sbrk.o)
 .debug_info    0x000000000001da80      0x4eb /home/nathan/Documents/Cours/EPFL_RTES_CS476/Code/mini_project_v2/sw/mini_project_v3_bsp//libucosii_bsp.a(alt_write.o)
 .debug_info    0x000000000001df6b      0xc67 /home/nathan/Documents/Cours/EPFL_RTES_CS476/Code/mini_project_v2/sw/mini_project_v3_bsp//libucosii_bsp.a(alt_env_lock.o)
 .debug_info    0x000000000001ebd2      0xdad /home/nathan/Documents/Cours/EPFL_RTES_CS476/Code/mini_project_v2/sw/mini_project_v3_bsp//libucosii_bsp.a(alt_malloc_lock.o)
 .debug_info    0x000000000001f97f     0x15b9 /home/nathan/Documents/Cours/EPFL_RTES_CS476/Code/mini_project_v2/sw/mini_project_v3_bsp//libucosii_bsp.a(os_core.o)
 .debug_info    0x0000000000020f38      0xaa8 /home/nathan/Documents/Cours/EPFL_RTES_CS476/Code/mini_project_v2/sw/mini_project_v3_bsp//libucosii_bsp.a(os_dbg.o)
 .debug_info    0x00000000000219e0      0xf9c /home/nathan/Documents/Cours/EPFL_RTES_CS476/Code/mini_project_v2/sw/mini_project_v3_bsp//libucosii_bsp.a(os_flag.o)
 .debug_info    0x000000000002297c      0x67a /home/nathan/Documents/Cours/EPFL_RTES_CS476/Code/mini_project_v2/sw/mini_project_v3_bsp//libucosii_bsp.a(os_mem.o)
 .debug_info    0x0000000000022ff6      0xda3 /home/nathan/Documents/Cours/EPFL_RTES_CS476/Code/mini_project_v2/sw/mini_project_v3_bsp//libucosii_bsp.a(os_q.o)
 .debug_info    0x0000000000023d99      0xa04 /home/nathan/Documents/Cours/EPFL_RTES_CS476/Code/mini_project_v2/sw/mini_project_v3_bsp//libucosii_bsp.a(os_sem.o)
 .debug_info    0x000000000002479d     0x1117 /home/nathan/Documents/Cours/EPFL_RTES_CS476/Code/mini_project_v2/sw/mini_project_v3_bsp//libucosii_bsp.a(os_task.o)
 .debug_info    0x00000000000258b4      0x6e9 /home/nathan/Documents/Cours/EPFL_RTES_CS476/Code/mini_project_v2/sw/mini_project_v3_bsp//libucosii_bsp.a(os_time.o)
 .debug_info    0x0000000000025f9d      0x626 /home/nathan/Documents/Cours/EPFL_RTES_CS476/Code/mini_project_v2/sw/mini_project_v3_bsp//libucosii_bsp.a(alt_sys_init.o)
 .debug_info    0x00000000000265c3      0x67b /home/nathan/Documents/Cours/EPFL_RTES_CS476/Code/mini_project_v2/sw/mini_project_v3_bsp//libucosii_bsp.a(altera_avalon_jtag_uart_fd.o)
 .debug_info    0x0000000000026c3e      0x6b3 /home/nathan/Documents/Cours/EPFL_RTES_CS476/Code/mini_project_v2/sw/mini_project_v3_bsp//libucosii_bsp.a(altera_avalon_jtag_uart_init.o)
 .debug_info    0x00000000000272f1      0x3cd /home/nathan/Documents/Cours/EPFL_RTES_CS476/Code/mini_project_v2/sw/mini_project_v3_bsp//libucosii_bsp.a(altera_avalon_jtag_uart_ioctl.o)
 .debug_info    0x00000000000276be      0x57a /home/nathan/Documents/Cours/EPFL_RTES_CS476/Code/mini_project_v2/sw/mini_project_v3_bsp//libucosii_bsp.a(altera_avalon_jtag_uart_read.o)
 .debug_info    0x0000000000027c38      0x579 /home/nathan/Documents/Cours/EPFL_RTES_CS476/Code/mini_project_v2/sw/mini_project_v3_bsp//libucosii_bsp.a(altera_avalon_jtag_uart_write.o)
 .debug_info    0x00000000000281b1      0x226 /home/nathan/Documents/Cours/EPFL_RTES_CS476/Code/mini_project_v2/sw/mini_project_v3_bsp//libucosii_bsp.a(altera_avalon_timer_sc.o)
 .debug_info    0x00000000000283d7      0x2cc /home/nathan/Documents/Cours/EPFL_RTES_CS476/Code/mini_project_v2/sw/mini_project_v3_bsp//libucosii_bsp.a(alt_alarm_start.o)
 .debug_info    0x00000000000286a3       0x92 /home/nathan/Documents/Cours/EPFL_RTES_CS476/Code/mini_project_v2/sw/mini_project_v3_bsp//libucosii_bsp.a(alt_dcache_flush_all.o)
 .debug_info    0x0000000000028735      0x1a9 /home/nathan/Documents/Cours/EPFL_RTES_CS476/Code/mini_project_v2/sw/mini_project_v3_bsp//libucosii_bsp.a(alt_dev_llist_insert.o)
 .debug_info    0x00000000000288de       0x83 /home/nathan/Documents/Cours/EPFL_RTES_CS476/Code/mini_project_v2/sw/mini_project_v3_bsp//libucosii_bsp.a(alt_do_ctors.o)
 .debug_info    0x0000000000028961       0x83 /home/nathan/Documents/Cours/EPFL_RTES_CS476/Code/mini_project_v2/sw/mini_project_v3_bsp//libucosii_bsp.a(alt_do_dtors.o)
 .debug_info    0x00000000000289e4       0x92 /home/nathan/Documents/Cours/EPFL_RTES_CS476/Code/mini_project_v2/sw/mini_project_v3_bsp//libucosii_bsp.a(alt_icache_flush_all.o)
 .debug_info    0x0000000000028a76      0x350 /home/nathan/Documents/Cours/EPFL_RTES_CS476/Code/mini_project_v2/sw/mini_project_v3_bsp//libucosii_bsp.a(alt_iic.o)
 .debug_info    0x0000000000028dc6      0x1ef /home/nathan/Documents/Cours/EPFL_RTES_CS476/Code/mini_project_v2/sw/mini_project_v3_bsp//libucosii_bsp.a(alt_iic_isr_register.o)
 .debug_info    0x0000000000028fb5      0x4d9 /home/nathan/Documents/Cours/EPFL_RTES_CS476/Code/mini_project_v2/sw/mini_project_v3_bsp//libucosii_bsp.a(alt_io_redirect.o)
 .debug_info    0x000000000002948e       0x96 /home/nathan/Documents/Cours/EPFL_RTES_CS476/Code/mini_project_v2/sw/mini_project_v3_bsp//libucosii_bsp.a(alt_irq_entry.o)
 .debug_info    0x0000000000029524      0x1b0 /home/nathan/Documents/Cours/EPFL_RTES_CS476/Code/mini_project_v2/sw/mini_project_v3_bsp//libucosii_bsp.a(alt_irq_handler.o)
 .debug_info    0x00000000000296d4       0x88 /home/nathan/Documents/Cours/EPFL_RTES_CS476/Code/mini_project_v2/sw/mini_project_v3_bsp//libucosii_bsp.a(alt_irq_vars.o)
 .debug_info    0x000000000002975c      0x3e4 /home/nathan/Documents/Cours/EPFL_RTES_CS476/Code/mini_project_v2/sw/mini_project_v3_bsp//libucosii_bsp.a(alt_open.o)
 .debug_info    0x0000000000029b40      0x2a7 /home/nathan/Documents/Cours/EPFL_RTES_CS476/Code/mini_project_v2/sw/mini_project_v3_bsp//libucosii_bsp.a(alt_tick.o)
 .debug_info    0x0000000000029de7       0x92 /home/nathan/Documents/Cours/EPFL_RTES_CS476/Code/mini_project_v2/sw/mini_project_v3_bsp//libucosii_bsp.a(altera_nios2_gen2_irq.o)
 .debug_info    0x0000000000029e79       0x95 /home/nathan/Documents/Cours/EPFL_RTES_CS476/Code/mini_project_v2/sw/mini_project_v3_bsp//libucosii_bsp.a(os_cpu_a.o)
 .debug_info    0x0000000000029f0e      0xcea /home/nathan/Documents/Cours/EPFL_RTES_CS476/Code/mini_project_v2/sw/mini_project_v3_bsp//libucosii_bsp.a(os_cpu_c.o)
 .debug_info    0x000000000002abf8       0x9c /home/nathan/Documents/Cours/EPFL_RTES_CS476/Code/mini_project_v2/sw/mini_project_v3_bsp//libucosii_bsp.a(alt_exception_entry.o)
 .debug_info    0x000000000002ac94      0x31d /home/nathan/Documents/Cours/EPFL_RTES_CS476/Code/mini_project_v2/sw/mini_project_v3_bsp//libucosii_bsp.a(alt_find_dev.o)
 .debug_info    0x000000000002afb1      0x31a /home/nathan/Documents/Cours/EPFL_RTES_CS476/Code/mini_project_v2/sw/mini_project_v3_bsp//libucosii_bsp.a(alt_find_file.o)
 .debug_info    0x000000000002b2cb      0x44b /home/nathan/Documents/Cours/EPFL_RTES_CS476/Code/mini_project_v2/sw/mini_project_v3_bsp//libucosii_bsp.a(alt_get_fd.o)
 .debug_info    0x000000000002b716      0x1e7 /home/nathan/Documents/Cours/EPFL_RTES_CS476/Code/mini_project_v2/sw/mini_project_v3_bsp//libucosii_bsp.a(alt_instruction_exception_entry.o)
 .debug_info    0x000000000002b8fd       0xfe /home/nathan/Documents/Misc/quartus-free/pkg/quartus-free/opt/altera/18.1/nios2eds/bin/gnu/H-x86_64-pc-linux-gnu/bin/../lib/gcc/nios2-elf/5.3.0/../../../../../H-x86_64-pc-linux-gnu/nios2-elf/lib/libc.a(lib_a-atexit.o)
 .debug_info    0x000000000002b9fb      0x8e4 /home/nathan/Documents/Misc/quartus-free/pkg/quartus-free/opt/altera/18.1/nios2eds/bin/gnu/H-x86_64-pc-linux-gnu/bin/../lib/gcc/nios2-elf/5.3.0/../../../../../H-x86_64-pc-linux-gnu/nios2-elf/lib/libc.a(lib_a-exit.o)
 .debug_info    0x000000000002c2df      0x11a /home/nathan/Documents/Misc/quartus-free/pkg/quartus-free/opt/altera/18.1/nios2eds/bin/gnu/H-x86_64-pc-linux-gnu/bin/../lib/gcc/nios2-elf/5.3.0/../../../../../H-x86_64-pc-linux-gnu/nios2-elf/lib/libc.a(lib_a-memcmp.o)
 .debug_info    0x000000000002c3f9      0x934 /home/nathan/Documents/Misc/quartus-free/pkg/quartus-free/opt/altera/18.1/nios2eds/bin/gnu/H-x86_64-pc-linux-gnu/bin/../lib/gcc/nios2-elf/5.3.0/../../../../../H-x86_64-pc-linux-gnu/nios2-elf/lib/libc.a(lib_a-__atexit.o)
 .debug_info    0x000000000002cd2d      0x965 /home/nathan/Documents/Misc/quartus-free/pkg/quartus-free/opt/altera/18.1/nios2eds/bin/gnu/H-x86_64-pc-linux-gnu/bin/../lib/gcc/nios2-elf/5.3.0/../../../../../H-x86_64-pc-linux-gnu/nios2-elf/lib/libc.a(lib_a-__call_atexit.o)
 .debug_info    0x000000000002d692      0x13b /home/nathan/Documents/Cours/EPFL_RTES_CS476/Code/mini_project_v2/sw/mini_project_v3_bsp//libucosii_bsp.a(alt_exit.o)

.debug_abbrev   0x0000000000000000     0xac98
 *(.debug_abbrev)
 .debug_abbrev  0x0000000000000000       0x12 /home/nathan/Documents/Cours/EPFL_RTES_CS476/Code/mini_project_v2/sw/mini_project_v3_bsp//obj/HAL/src/crt0.o
 .debug_abbrev  0x0000000000000012      0x1aa obj/default/mini_project_with_fake_camera.o
 .debug_abbrev  0x00000000000001bc      0x10e /home/nathan/Documents/Misc/quartus-free/pkg/quartus-free/opt/altera/18.1/nios2eds/bin/gnu/H-x86_64-pc-linux-gnu/bin/../lib/gcc/nios2-elf/5.3.0/libgcc.a(lib2-divmod.o)
 .debug_abbrev  0x00000000000002ca      0x1f4 /home/nathan/Documents/Misc/quartus-free/pkg/quartus-free/opt/altera/18.1/nios2eds/bin/gnu/H-x86_64-pc-linux-gnu/bin/../lib/gcc/nios2-elf/5.3.0/../../../../../H-x86_64-pc-linux-gnu/nios2-elf/lib/libc.a(lib_a-malloc.o)
 .debug_abbrev  0x00000000000004be      0x29d /home/nathan/Documents/Misc/quartus-free/pkg/quartus-free/opt/altera/18.1/nios2eds/bin/gnu/H-x86_64-pc-linux-gnu/bin/../lib/gcc/nios2-elf/5.3.0/../../../../../H-x86_64-pc-linux-gnu/nios2-elf/lib/libc.a(lib_a-mallocr.o)
 .debug_abbrev  0x000000000000075b      0x233 /home/nathan/Documents/Misc/quartus-free/pkg/quartus-free/opt/altera/18.1/nios2eds/bin/gnu/H-x86_64-pc-linux-gnu/bin/../lib/gcc/nios2-elf/5.3.0/../../../../../H-x86_64-pc-linux-gnu/nios2-elf/lib/libc.a(lib_a-printf.o)
 .debug_abbrev  0x000000000000098e      0x249 /home/nathan/Documents/Misc/quartus-free/pkg/quartus-free/opt/altera/18.1/nios2eds/bin/gnu/H-x86_64-pc-linux-gnu/bin/../lib/gcc/nios2-elf/5.3.0/../../../../../H-x86_64-pc-linux-gnu/nios2-elf/lib/libc.a(lib_a-puts.o)
 .debug_abbrev  0x0000000000000bd7      0x20a /home/nathan/Documents/Misc/quartus-free/pkg/quartus-free/opt/altera/18.1/nios2eds/bin/gnu/H-x86_64-pc-linux-gnu/bin/../lib/gcc/nios2-elf/5.3.0/../../../../../H-x86_64-pc-linux-gnu/nios2-elf/lib/libc.a(lib_a-sbrkr.o)
 .debug_abbrev  0x0000000000000de1       0x90 /home/nathan/Documents/Misc/quartus-free/pkg/quartus-free/opt/altera/18.1/nios2eds/bin/gnu/H-x86_64-pc-linux-gnu/bin/../lib/gcc/nios2-elf/5.3.0/../../../../../H-x86_64-pc-linux-gnu/nios2-elf/lib/libc.a(lib_a-strlen.o)
 .debug_abbrev  0x0000000000000e71      0x3bf /home/nathan/Documents/Misc/quartus-free/pkg/quartus-free/opt/altera/18.1/nios2eds/bin/gnu/H-x86_64-pc-linux-gnu/bin/../lib/gcc/nios2-elf/5.3.0/../../../../../H-x86_64-pc-linux-gnu/nios2-elf/lib/libc.a(lib_a-vfprintf.o)
 .debug_abbrev  0x0000000000001230      0x218 /home/nathan/Documents/Misc/quartus-free/pkg/quartus-free/opt/altera/18.1/nios2eds/bin/gnu/H-x86_64-pc-linux-gnu/bin/../lib/gcc/nios2-elf/5.3.0/../../../../../H-x86_64-pc-linux-gnu/nios2-elf/lib/libc.a(lib_a-wsetup.o)
 .debug_abbrev  0x0000000000001448      0x2b8 /home/nathan/Documents/Misc/quartus-free/pkg/quartus-free/opt/altera/18.1/nios2eds/bin/gnu/H-x86_64-pc-linux-gnu/bin/../lib/gcc/nios2-elf/5.3.0/../../../../../H-x86_64-pc-linux-gnu/nios2-elf/lib/libc.a(lib_a-dtoa.o)
 .debug_abbrev  0x0000000000001700      0x2a0 /home/nathan/Documents/Misc/quartus-free/pkg/quartus-free/opt/altera/18.1/nios2eds/bin/gnu/H-x86_64-pc-linux-gnu/bin/../lib/gcc/nios2-elf/5.3.0/../../../../../H-x86_64-pc-linux-gnu/nios2-elf/lib/libc.a(lib_a-fflush.o)
 .debug_abbrev  0x00000000000019a0      0x391 /home/nathan/Documents/Misc/quartus-free/pkg/quartus-free/opt/altera/18.1/nios2eds/bin/gnu/H-x86_64-pc-linux-gnu/bin/../lib/gcc/nios2-elf/5.3.0/../../../../../H-x86_64-pc-linux-gnu/nios2-elf/lib/libc.a(lib_a-findfp.o)
 .debug_abbrev  0x0000000000001d31      0x264 /home/nathan/Documents/Misc/quartus-free/pkg/quartus-free/opt/altera/18.1/nios2eds/bin/gnu/H-x86_64-pc-linux-gnu/bin/../lib/gcc/nios2-elf/5.3.0/../../../../../H-x86_64-pc-linux-gnu/nios2-elf/lib/libc.a(lib_a-freer.o)
 .debug_abbrev  0x0000000000001f95      0x228 /home/nathan/Documents/Misc/quartus-free/pkg/quartus-free/opt/altera/18.1/nios2eds/bin/gnu/H-x86_64-pc-linux-gnu/bin/../lib/gcc/nios2-elf/5.3.0/../../../../../H-x86_64-pc-linux-gnu/nios2-elf/lib/libc.a(lib_a-fvwrite.o)
 .debug_abbrev  0x00000000000021bd      0x1d1 /home/nathan/Documents/Misc/quartus-free/pkg/quartus-free/opt/altera/18.1/nios2eds/bin/gnu/H-x86_64-pc-linux-gnu/bin/../lib/gcc/nios2-elf/5.3.0/../../../../../H-x86_64-pc-linux-gnu/nios2-elf/lib/libc.a(lib_a-fwalk.o)
 .debug_abbrev  0x000000000000238e      0x18f /home/nathan/Documents/Misc/quartus-free/pkg/quartus-free/opt/altera/18.1/nios2eds/bin/gnu/H-x86_64-pc-linux-gnu/bin/../lib/gcc/nios2-elf/5.3.0/../../../../../H-x86_64-pc-linux-gnu/nios2-elf/lib/libc.a(lib_a-impure.o)
 .debug_abbrev  0x000000000000251d       0x37 /home/nathan/Documents/Misc/quartus-free/pkg/quartus-free/opt/altera/18.1/nios2eds/bin/gnu/H-x86_64-pc-linux-gnu/bin/../lib/gcc/nios2-elf/5.3.0/../../../../../H-x86_64-pc-linux-gnu/nios2-elf/lib/libc.a(lib_a-int_errno.o)
 .debug_abbrev  0x0000000000002554      0x2c0 /home/nathan/Documents/Misc/quartus-free/pkg/quartus-free/opt/altera/18.1/nios2eds/bin/gnu/H-x86_64-pc-linux-gnu/bin/../lib/gcc/nios2-elf/5.3.0/../../../../../H-x86_64-pc-linux-gnu/nios2-elf/lib/libc.a(lib_a-locale.o)
 .debug_abbrev  0x0000000000002814      0x20f /home/nathan/Documents/Misc/quartus-free/pkg/quartus-free/opt/altera/18.1/nios2eds/bin/gnu/H-x86_64-pc-linux-gnu/bin/../lib/gcc/nios2-elf/5.3.0/../../../../../H-x86_64-pc-linux-gnu/nios2-elf/lib/libc.a(lib_a-makebuf.o)
 .debug_abbrev  0x0000000000002a23       0xab /home/nathan/Documents/Misc/quartus-free/pkg/quartus-free/opt/altera/18.1/nios2eds/bin/gnu/H-x86_64-pc-linux-gnu/bin/../lib/gcc/nios2-elf/5.3.0/../../../../../H-x86_64-pc-linux-gnu/nios2-elf/lib/libc.a(lib_a-memchr.o)
 .debug_abbrev  0x0000000000002ace       0xa3 /home/nathan/Documents/Misc/quartus-free/pkg/quartus-free/opt/altera/18.1/nios2eds/bin/gnu/H-x86_64-pc-linux-gnu/bin/../lib/gcc/nios2-elf/5.3.0/../../../../../H-x86_64-pc-linux-gnu/nios2-elf/lib/libc.a(lib_a-memcpy.o)
 .debug_abbrev  0x0000000000002b71       0x9c /home/nathan/Documents/Misc/quartus-free/pkg/quartus-free/opt/altera/18.1/nios2eds/bin/gnu/H-x86_64-pc-linux-gnu/bin/../lib/gcc/nios2-elf/5.3.0/../../../../../H-x86_64-pc-linux-gnu/nios2-elf/lib/libc.a(lib_a-memmove.o)
 .debug_abbrev  0x0000000000002c0d       0xae /home/nathan/Documents/Misc/quartus-free/pkg/quartus-free/opt/altera/18.1/nios2eds/bin/gnu/H-x86_64-pc-linux-gnu/bin/../lib/gcc/nios2-elf/5.3.0/../../../../../H-x86_64-pc-linux-gnu/nios2-elf/lib/libc.a(lib_a-memset.o)
 .debug_abbrev  0x0000000000002cbb      0x3d7 /home/nathan/Documents/Misc/quartus-free/pkg/quartus-free/opt/altera/18.1/nios2eds/bin/gnu/H-x86_64-pc-linux-gnu/bin/../lib/gcc/nios2-elf/5.3.0/../../../../../H-x86_64-pc-linux-gnu/nios2-elf/lib/libc.a(lib_a-mprec.o)
 .debug_abbrev  0x0000000000003092      0x231 /home/nathan/Documents/Misc/quartus-free/pkg/quartus-free/opt/altera/18.1/nios2eds/bin/gnu/H-x86_64-pc-linux-gnu/bin/../lib/gcc/nios2-elf/5.3.0/../../../../../H-x86_64-pc-linux-gnu/nios2-elf/lib/libc.a(lib_a-reallocr.o)
 .debug_abbrev  0x00000000000032c3       0x7e /home/nathan/Documents/Misc/quartus-free/pkg/quartus-free/opt/altera/18.1/nios2eds/bin/gnu/H-x86_64-pc-linux-gnu/bin/../lib/gcc/nios2-elf/5.3.0/../../../../../H-x86_64-pc-linux-gnu/nios2-elf/lib/libc.a(lib_a-s_fpclassify.o)
 .debug_abbrev  0x0000000000003341      0x239 /home/nathan/Documents/Misc/quartus-free/pkg/quartus-free/opt/altera/18.1/nios2eds/bin/gnu/H-x86_64-pc-linux-gnu/bin/../lib/gcc/nios2-elf/5.3.0/../../../../../H-x86_64-pc-linux-gnu/nios2-elf/lib/libc.a(lib_a-stdio.o)
 .debug_abbrev  0x000000000000357a       0x74 /home/nathan/Documents/Misc/quartus-free/pkg/quartus-free/opt/altera/18.1/nios2eds/bin/gnu/H-x86_64-pc-linux-gnu/bin/../lib/gcc/nios2-elf/5.3.0/../../../../../H-x86_64-pc-linux-gnu/nios2-elf/lib/libc.a(lib_a-strcmp.o)
 .debug_abbrev  0x00000000000035ee      0x3ce /home/nathan/Documents/Misc/quartus-free/pkg/quartus-free/opt/altera/18.1/nios2eds/bin/gnu/H-x86_64-pc-linux-gnu/bin/../lib/gcc/nios2-elf/5.3.0/../../../../../H-x86_64-pc-linux-gnu/nios2-elf/lib/libc.a(lib_a-vfiprintf.o)
 .debug_abbrev  0x00000000000039bc      0x1eb /home/nathan/Documents/Misc/quartus-free/pkg/quartus-free/opt/altera/18.1/nios2eds/bin/gnu/H-x86_64-pc-linux-gnu/bin/../lib/gcc/nios2-elf/5.3.0/../../../../../H-x86_64-pc-linux-gnu/nios2-elf/lib/libc.a(lib_a-writer.o)
 .debug_abbrev  0x0000000000003ba7      0x1e6 /home/nathan/Documents/Misc/quartus-free/pkg/quartus-free/opt/altera/18.1/nios2eds/bin/gnu/H-x86_64-pc-linux-gnu/bin/../lib/gcc/nios2-elf/5.3.0/../../../../../H-x86_64-pc-linux-gnu/nios2-elf/lib/libc.a(closer.o)
 .debug_abbrev  0x0000000000003d8d      0x209 /home/nathan/Documents/Misc/quartus-free/pkg/quartus-free/opt/altera/18.1/nios2eds/bin/gnu/H-x86_64-pc-linux-gnu/bin/../lib/gcc/nios2-elf/5.3.0/../../../../../H-x86_64-pc-linux-gnu/nios2-elf/lib/libc.a(lib_a-callocr.o)
 .debug_abbrev  0x0000000000003f96      0x2a2 /home/nathan/Documents/Misc/quartus-free/pkg/quartus-free/opt/altera/18.1/nios2eds/bin/gnu/H-x86_64-pc-linux-gnu/bin/../lib/gcc/nios2-elf/5.3.0/../../../../../H-x86_64-pc-linux-gnu/nios2-elf/lib/libc.a(lib_a-fclose.o)
 .debug_abbrev  0x0000000000004238      0x2b9 /home/nathan/Documents/Misc/quartus-free/pkg/quartus-free/opt/altera/18.1/nios2eds/bin/gnu/H-x86_64-pc-linux-gnu/bin/../lib/gcc/nios2-elf/5.3.0/../../../../../H-x86_64-pc-linux-gnu/nios2-elf/lib/libc.a(lib_a-fputwc.o)
 .debug_abbrev  0x00000000000044f1      0x1f5 /home/nathan/Documents/Misc/quartus-free/pkg/quartus-free/opt/altera/18.1/nios2eds/bin/gnu/H-x86_64-pc-linux-gnu/bin/../lib/gcc/nios2-elf/5.3.0/../../../../../H-x86_64-pc-linux-gnu/nios2-elf/lib/libc.a(lib_a-fstatr.o)
 .debug_abbrev  0x00000000000046e6      0x1e6 /home/nathan/Documents/Misc/quartus-free/pkg/quartus-free/opt/altera/18.1/nios2eds/bin/gnu/H-x86_64-pc-linux-gnu/bin/../lib/gcc/nios2-elf/5.3.0/../../../../../H-x86_64-pc-linux-gnu/nios2-elf/lib/libc.a(lib_a-isattyr.o)
 .debug_abbrev  0x00000000000048cc      0x1f5 /home/nathan/Documents/Misc/quartus-free/pkg/quartus-free/opt/altera/18.1/nios2eds/bin/gnu/H-x86_64-pc-linux-gnu/bin/../lib/gcc/nios2-elf/5.3.0/../../../../../H-x86_64-pc-linux-gnu/nios2-elf/lib/libc.a(lib_a-lseekr.o)
 .debug_abbrev  0x0000000000004ac1      0x1e6 /home/nathan/Documents/Misc/quartus-free/pkg/quartus-free/opt/altera/18.1/nios2eds/bin/gnu/H-x86_64-pc-linux-gnu/bin/../lib/gcc/nios2-elf/5.3.0/../../../../../H-x86_64-pc-linux-gnu/nios2-elf/lib/libc.a(lib_a-readr.o)
 .debug_abbrev  0x0000000000004ca7      0x251 /home/nathan/Documents/Misc/quartus-free/pkg/quartus-free/opt/altera/18.1/nios2eds/bin/gnu/H-x86_64-pc-linux-gnu/bin/../lib/gcc/nios2-elf/5.3.0/../../../../../H-x86_64-pc-linux-gnu/nios2-elf/lib/libc.a(lib_a-wbuf.o)
 .debug_abbrev  0x0000000000004ef8      0x230 /home/nathan/Documents/Misc/quartus-free/pkg/quartus-free/opt/altera/18.1/nios2eds/bin/gnu/H-x86_64-pc-linux-gnu/bin/../lib/gcc/nios2-elf/5.3.0/../../../../../H-x86_64-pc-linux-gnu/nios2-elf/lib/libc.a(lib_a-wcrtomb.o)
 .debug_abbrev  0x0000000000005128      0x21f /home/nathan/Documents/Misc/quartus-free/pkg/quartus-free/opt/altera/18.1/nios2eds/bin/gnu/H-x86_64-pc-linux-gnu/bin/../lib/gcc/nios2-elf/5.3.0/../../../../../H-x86_64-pc-linux-gnu/nios2-elf/lib/libc.a(lib_a-wctomb_r.o)
 .debug_abbrev  0x0000000000005347      0x167 /home/nathan/Documents/Misc/quartus-free/pkg/quartus-free/opt/altera/18.1/nios2eds/bin/gnu/H-x86_64-pc-linux-gnu/bin/../lib/gcc/nios2-elf/5.3.0/libgcc.a(_udivdi3.o)
 .debug_abbrev  0x00000000000054ae      0x18a /home/nathan/Documents/Misc/quartus-free/pkg/quartus-free/opt/altera/18.1/nios2eds/bin/gnu/H-x86_64-pc-linux-gnu/bin/../lib/gcc/nios2-elf/5.3.0/libgcc.a(_umoddi3.o)
 .debug_abbrev  0x0000000000005638      0x13a /home/nathan/Documents/Misc/quartus-free/pkg/quartus-free/opt/altera/18.1/nios2eds/bin/gnu/H-x86_64-pc-linux-gnu/bin/../lib/gcc/nios2-elf/5.3.0/libgcc.a(adddf3.o)
 .debug_abbrev  0x0000000000005772      0x12d /home/nathan/Documents/Misc/quartus-free/pkg/quartus-free/opt/altera/18.1/nios2eds/bin/gnu/H-x86_64-pc-linux-gnu/bin/../lib/gcc/nios2-elf/5.3.0/libgcc.a(divdf3.o)
 .debug_abbrev  0x000000000000589f      0x128 /home/nathan/Documents/Misc/quartus-free/pkg/quartus-free/opt/altera/18.1/nios2eds/bin/gnu/H-x86_64-pc-linux-gnu/bin/../lib/gcc/nios2-elf/5.3.0/libgcc.a(eqdf2.o)
 .debug_abbrev  0x00000000000059c7      0x137 /home/nathan/Documents/Misc/quartus-free/pkg/quartus-free/opt/altera/18.1/nios2eds/bin/gnu/H-x86_64-pc-linux-gnu/bin/../lib/gcc/nios2-elf/5.3.0/libgcc.a(gedf2.o)
 .debug_abbrev  0x0000000000005afe      0x137 /home/nathan/Documents/Misc/quartus-free/pkg/quartus-free/opt/altera/18.1/nios2eds/bin/gnu/H-x86_64-pc-linux-gnu/bin/../lib/gcc/nios2-elf/5.3.0/libgcc.a(ledf2.o)
 .debug_abbrev  0x0000000000005c35      0x13f /home/nathan/Documents/Misc/quartus-free/pkg/quartus-free/opt/altera/18.1/nios2eds/bin/gnu/H-x86_64-pc-linux-gnu/bin/../lib/gcc/nios2-elf/5.3.0/libgcc.a(muldf3.o)
 .debug_abbrev  0x0000000000005d74      0x133 /home/nathan/Documents/Misc/quartus-free/pkg/quartus-free/opt/altera/18.1/nios2eds/bin/gnu/H-x86_64-pc-linux-gnu/bin/../lib/gcc/nios2-elf/5.3.0/libgcc.a(subdf3.o)
 .debug_abbrev  0x0000000000005ea7      0x135 /home/nathan/Documents/Misc/quartus-free/pkg/quartus-free/opt/altera/18.1/nios2eds/bin/gnu/H-x86_64-pc-linux-gnu/bin/../lib/gcc/nios2-elf/5.3.0/libgcc.a(fixdfsi.o)
 .debug_abbrev  0x0000000000005fdc      0x124 /home/nathan/Documents/Misc/quartus-free/pkg/quartus-free/opt/altera/18.1/nios2eds/bin/gnu/H-x86_64-pc-linux-gnu/bin/../lib/gcc/nios2-elf/5.3.0/libgcc.a(floatsidf.o)
 .debug_abbrev  0x0000000000006100      0x124 /home/nathan/Documents/Misc/quartus-free/pkg/quartus-free/opt/altera/18.1/nios2eds/bin/gnu/H-x86_64-pc-linux-gnu/bin/../lib/gcc/nios2-elf/5.3.0/libgcc.a(floatunsidf.o)
 .debug_abbrev  0x0000000000006224       0x5d /home/nathan/Documents/Misc/quartus-free/pkg/quartus-free/opt/altera/18.1/nios2eds/bin/gnu/H-x86_64-pc-linux-gnu/bin/../lib/gcc/nios2-elf/5.3.0/libgcc.a(_clz.o)
 .debug_abbrev  0x0000000000006281       0xbe /home/nathan/Documents/Misc/quartus-free/pkg/quartus-free/opt/altera/18.1/nios2eds/bin/gnu/H-x86_64-pc-linux-gnu/bin/../lib/gcc/nios2-elf/5.3.0/libgcc.a(_clzsi2.o)
 .debug_abbrev  0x000000000000633f      0x126 /home/nathan/Documents/Cours/EPFL_RTES_CS476/Code/mini_project_v2/sw/mini_project_v3_bsp//libucosii_bsp.a(alt_close.o)
 .debug_abbrev  0x0000000000006465      0x11c /home/nathan/Documents/Cours/EPFL_RTES_CS476/Code/mini_project_v2/sw/mini_project_v3_bsp//libucosii_bsp.a(alt_dev.o)
 .debug_abbrev  0x0000000000006581       0x5a /home/nathan/Documents/Cours/EPFL_RTES_CS476/Code/mini_project_v2/sw/mini_project_v3_bsp//libucosii_bsp.a(alt_errno.o)
 .debug_abbrev  0x00000000000065db      0x126 /home/nathan/Documents/Cours/EPFL_RTES_CS476/Code/mini_project_v2/sw/mini_project_v3_bsp//libucosii_bsp.a(alt_fstat.o)
 .debug_abbrev  0x0000000000006701      0x126 /home/nathan/Documents/Cours/EPFL_RTES_CS476/Code/mini_project_v2/sw/mini_project_v3_bsp//libucosii_bsp.a(alt_isatty.o)
 .debug_abbrev  0x0000000000006827       0x9f /home/nathan/Documents/Cours/EPFL_RTES_CS476/Code/mini_project_v2/sw/mini_project_v3_bsp//libucosii_bsp.a(alt_load.o)
 .debug_abbrev  0x00000000000068c6      0x126 /home/nathan/Documents/Cours/EPFL_RTES_CS476/Code/mini_project_v2/sw/mini_project_v3_bsp//libucosii_bsp.a(alt_lseek.o)
 .debug_abbrev  0x00000000000069ec      0x139 /home/nathan/Documents/Cours/EPFL_RTES_CS476/Code/mini_project_v2/sw/mini_project_v3_bsp//libucosii_bsp.a(alt_main.o)
 .debug_abbrev  0x0000000000006b25      0x135 /home/nathan/Documents/Cours/EPFL_RTES_CS476/Code/mini_project_v2/sw/mini_project_v3_bsp//libucosii_bsp.a(alt_read.o)
 .debug_abbrev  0x0000000000006c5a       0xe5 /home/nathan/Documents/Cours/EPFL_RTES_CS476/Code/mini_project_v2/sw/mini_project_v3_bsp//libucosii_bsp.a(alt_release_fd.o)
 .debug_abbrev  0x0000000000006d3f      0x112 /home/nathan/Documents/Cours/EPFL_RTES_CS476/Code/mini_project_v2/sw/mini_project_v3_bsp//libucosii_bsp.a(alt_sbrk.o)
 .debug_abbrev  0x0000000000006e51      0x13a /home/nathan/Documents/Cours/EPFL_RTES_CS476/Code/mini_project_v2/sw/mini_project_v3_bsp//libucosii_bsp.a(alt_write.o)
 .debug_abbrev  0x0000000000006f8b      0x1e3 /home/nathan/Documents/Cours/EPFL_RTES_CS476/Code/mini_project_v2/sw/mini_project_v3_bsp//libucosii_bsp.a(alt_env_lock.o)
 .debug_abbrev  0x000000000000716e      0x26d /home/nathan/Documents/Cours/EPFL_RTES_CS476/Code/mini_project_v2/sw/mini_project_v3_bsp//libucosii_bsp.a(alt_malloc_lock.o)
 .debug_abbrev  0x00000000000073db      0x302 /home/nathan/Documents/Cours/EPFL_RTES_CS476/Code/mini_project_v2/sw/mini_project_v3_bsp//libucosii_bsp.a(os_core.o)
 .debug_abbrev  0x00000000000076dd       0xf7 /home/nathan/Documents/Cours/EPFL_RTES_CS476/Code/mini_project_v2/sw/mini_project_v3_bsp//libucosii_bsp.a(os_dbg.o)
 .debug_abbrev  0x00000000000077d4      0x25a /home/nathan/Documents/Cours/EPFL_RTES_CS476/Code/mini_project_v2/sw/mini_project_v3_bsp//libucosii_bsp.a(os_flag.o)
 .debug_abbrev  0x0000000000007a2e      0x228 /home/nathan/Documents/Cours/EPFL_RTES_CS476/Code/mini_project_v2/sw/mini_project_v3_bsp//libucosii_bsp.a(os_mem.o)
 .debug_abbrev  0x0000000000007c56      0x248 /home/nathan/Documents/Cours/EPFL_RTES_CS476/Code/mini_project_v2/sw/mini_project_v3_bsp//libucosii_bsp.a(os_q.o)
 .debug_abbrev  0x0000000000007e9e      0x262 /home/nathan/Documents/Cours/EPFL_RTES_CS476/Code/mini_project_v2/sw/mini_project_v3_bsp//libucosii_bsp.a(os_sem.o)
 .debug_abbrev  0x0000000000008100      0x247 /home/nathan/Documents/Cours/EPFL_RTES_CS476/Code/mini_project_v2/sw/mini_project_v3_bsp//libucosii_bsp.a(os_task.o)
 .debug_abbrev  0x0000000000008347      0x20c /home/nathan/Documents/Cours/EPFL_RTES_CS476/Code/mini_project_v2/sw/mini_project_v3_bsp//libucosii_bsp.a(os_time.o)
 .debug_abbrev  0x0000000000008553      0x1cc /home/nathan/Documents/Cours/EPFL_RTES_CS476/Code/mini_project_v2/sw/mini_project_v3_bsp//libucosii_bsp.a(alt_sys_init.o)
 .debug_abbrev  0x000000000000871f      0x16c /home/nathan/Documents/Cours/EPFL_RTES_CS476/Code/mini_project_v2/sw/mini_project_v3_bsp//libucosii_bsp.a(altera_avalon_jtag_uart_fd.o)
 .debug_abbrev  0x000000000000888b      0x24f /home/nathan/Documents/Cours/EPFL_RTES_CS476/Code/mini_project_v2/sw/mini_project_v3_bsp//libucosii_bsp.a(altera_avalon_jtag_uart_init.o)
 .debug_abbrev  0x0000000000008ada      0x156 /home/nathan/Documents/Cours/EPFL_RTES_CS476/Code/mini_project_v2/sw/mini_project_v3_bsp//libucosii_bsp.a(altera_avalon_jtag_uart_ioctl.o)
 .debug_abbrev  0x0000000000008c30      0x1f8 /home/nathan/Documents/Cours/EPFL_RTES_CS476/Code/mini_project_v2/sw/mini_project_v3_bsp//libucosii_bsp.a(altera_avalon_jtag_uart_read.o)
 .debug_abbrev  0x0000000000008e28      0x1f6 /home/nathan/Documents/Cours/EPFL_RTES_CS476/Code/mini_project_v2/sw/mini_project_v3_bsp//libucosii_bsp.a(altera_avalon_jtag_uart_write.o)
 .debug_abbrev  0x000000000000901e      0x155 /home/nathan/Documents/Cours/EPFL_RTES_CS476/Code/mini_project_v2/sw/mini_project_v3_bsp//libucosii_bsp.a(altera_avalon_timer_sc.o)
 .debug_abbrev  0x0000000000009173      0x162 /home/nathan/Documents/Cours/EPFL_RTES_CS476/Code/mini_project_v2/sw/mini_project_v3_bsp//libucosii_bsp.a(alt_alarm_start.o)
 .debug_abbrev  0x00000000000092d5       0x42 /home/nathan/Documents/Cours/EPFL_RTES_CS476/Code/mini_project_v2/sw/mini_project_v3_bsp//libucosii_bsp.a(alt_dcache_flush_all.o)
 .debug_abbrev  0x0000000000009317      0x114 /home/nathan/Documents/Cours/EPFL_RTES_CS476/Code/mini_project_v2/sw/mini_project_v3_bsp//libucosii_bsp.a(alt_dev_llist_insert.o)
 .debug_abbrev  0x000000000000942b       0x79 /home/nathan/Documents/Cours/EPFL_RTES_CS476/Code/mini_project_v2/sw/mini_project_v3_bsp//libucosii_bsp.a(alt_do_ctors.o)
 .debug_abbrev  0x00000000000094a4       0x79 /home/nathan/Documents/Cours/EPFL_RTES_CS476/Code/mini_project_v2/sw/mini_project_v3_bsp//libucosii_bsp.a(alt_do_dtors.o)
 .debug_abbrev  0x000000000000951d       0x42 /home/nathan/Documents/Cours/EPFL_RTES_CS476/Code/mini_project_v2/sw/mini_project_v3_bsp//libucosii_bsp.a(alt_icache_flush_all.o)
 .debug_abbrev  0x000000000000955f      0x163 /home/nathan/Documents/Cours/EPFL_RTES_CS476/Code/mini_project_v2/sw/mini_project_v3_bsp//libucosii_bsp.a(alt_iic.o)
 .debug_abbrev  0x00000000000096c2      0x169 /home/nathan/Documents/Cours/EPFL_RTES_CS476/Code/mini_project_v2/sw/mini_project_v3_bsp//libucosii_bsp.a(alt_iic_isr_register.o)
 .debug_abbrev  0x000000000000982b      0x11b /home/nathan/Documents/Cours/EPFL_RTES_CS476/Code/mini_project_v2/sw/mini_project_v3_bsp//libucosii_bsp.a(alt_io_redirect.o)
 .debug_abbrev  0x0000000000009946       0x12 /home/nathan/Documents/Cours/EPFL_RTES_CS476/Code/mini_project_v2/sw/mini_project_v3_bsp//libucosii_bsp.a(alt_irq_entry.o)
 .debug_abbrev  0x0000000000009958      0x13a /home/nathan/Documents/Cours/EPFL_RTES_CS476/Code/mini_project_v2/sw/mini_project_v3_bsp//libucosii_bsp.a(alt_irq_handler.o)
 .debug_abbrev  0x0000000000009a92       0x40 /home/nathan/Documents/Cours/EPFL_RTES_CS476/Code/mini_project_v2/sw/mini_project_v3_bsp//libucosii_bsp.a(alt_irq_vars.o)
 .debug_abbrev  0x0000000000009ad2      0x14f /home/nathan/Documents/Cours/EPFL_RTES_CS476/Code/mini_project_v2/sw/mini_project_v3_bsp//libucosii_bsp.a(alt_open.o)
 .debug_abbrev  0x0000000000009c21      0x15a /home/nathan/Documents/Cours/EPFL_RTES_CS476/Code/mini_project_v2/sw/mini_project_v3_bsp//libucosii_bsp.a(alt_tick.o)
 .debug_abbrev  0x0000000000009d7b       0x42 /home/nathan/Documents/Cours/EPFL_RTES_CS476/Code/mini_project_v2/sw/mini_project_v3_bsp//libucosii_bsp.a(altera_nios2_gen2_irq.o)
 .debug_abbrev  0x0000000000009dbd       0x14 /home/nathan/Documents/Cours/EPFL_RTES_CS476/Code/mini_project_v2/sw/mini_project_v3_bsp//libucosii_bsp.a(os_cpu_a.o)
 .debug_abbrev  0x0000000000009dd1      0x215 /home/nathan/Documents/Cours/EPFL_RTES_CS476/Code/mini_project_v2/sw/mini_project_v3_bsp//libucosii_bsp.a(os_cpu_c.o)
 .debug_abbrev  0x0000000000009fe6       0x12 /home/nathan/Documents/Cours/EPFL_RTES_CS476/Code/mini_project_v2/sw/mini_project_v3_bsp//libucosii_bsp.a(alt_exception_entry.o)
 .debug_abbrev  0x0000000000009ff8       0xf7 /home/nathan/Documents/Cours/EPFL_RTES_CS476/Code/mini_project_v2/sw/mini_project_v3_bsp//libucosii_bsp.a(alt_find_dev.o)
 .debug_abbrev  0x000000000000a0ef       0xf7 /home/nathan/Documents/Cours/EPFL_RTES_CS476/Code/mini_project_v2/sw/mini_project_v3_bsp//libucosii_bsp.a(alt_find_file.o)
 .debug_abbrev  0x000000000000a1e6      0x19b /home/nathan/Documents/Cours/EPFL_RTES_CS476/Code/mini_project_v2/sw/mini_project_v3_bsp//libucosii_bsp.a(alt_get_fd.o)
 .debug_abbrev  0x000000000000a381       0xdc /home/nathan/Documents/Cours/EPFL_RTES_CS476/Code/mini_project_v2/sw/mini_project_v3_bsp//libucosii_bsp.a(alt_instruction_exception_entry.o)
 .debug_abbrev  0x000000000000a45d       0xaa /home/nathan/Documents/Misc/quartus-free/pkg/quartus-free/opt/altera/18.1/nios2eds/bin/gnu/H-x86_64-pc-linux-gnu/bin/../lib/gcc/nios2-elf/5.3.0/../../../../../H-x86_64-pc-linux-gnu/nios2-elf/lib/libc.a(lib_a-atexit.o)
 .debug_abbrev  0x000000000000a507      0x1e5 /home/nathan/Documents/Misc/quartus-free/pkg/quartus-free/opt/altera/18.1/nios2eds/bin/gnu/H-x86_64-pc-linux-gnu/bin/../lib/gcc/nios2-elf/5.3.0/../../../../../H-x86_64-pc-linux-gnu/nios2-elf/lib/libc.a(lib_a-exit.o)
 .debug_abbrev  0x000000000000a6ec       0x7f /home/nathan/Documents/Misc/quartus-free/pkg/quartus-free/opt/altera/18.1/nios2eds/bin/gnu/H-x86_64-pc-linux-gnu/bin/../lib/gcc/nios2-elf/5.3.0/../../../../../H-x86_64-pc-linux-gnu/nios2-elf/lib/libc.a(lib_a-memcmp.o)
 .debug_abbrev  0x000000000000a76b      0x21e /home/nathan/Documents/Misc/quartus-free/pkg/quartus-free/opt/altera/18.1/nios2eds/bin/gnu/H-x86_64-pc-linux-gnu/bin/../lib/gcc/nios2-elf/5.3.0/../../../../../H-x86_64-pc-linux-gnu/nios2-elf/lib/libc.a(lib_a-__atexit.o)
 .debug_abbrev  0x000000000000a989      0x22e /home/nathan/Documents/Misc/quartus-free/pkg/quartus-free/opt/altera/18.1/nios2eds/bin/gnu/H-x86_64-pc-linux-gnu/bin/../lib/gcc/nios2-elf/5.3.0/../../../../../H-x86_64-pc-linux-gnu/nios2-elf/lib/libc.a(lib_a-__call_atexit.o)
 .debug_abbrev  0x000000000000abb7       0xe1 /home/nathan/Documents/Cours/EPFL_RTES_CS476/Code/mini_project_v2/sw/mini_project_v3_bsp//libucosii_bsp.a(alt_exit.o)

.debug_line     0x0000000000000000     0xe1ff
 *(.debug_line)
 .debug_line    0x0000000000000000       0x66 /home/nathan/Documents/Cours/EPFL_RTES_CS476/Code/mini_project_v2/sw/mini_project_v3_bsp//obj/HAL/src/crt0.o
 .debug_line    0x0000000000000066      0x48e obj/default/mini_project_with_fake_camera.o
 .debug_line    0x00000000000004f4      0x102 /home/nathan/Documents/Misc/quartus-free/pkg/quartus-free/opt/altera/18.1/nios2eds/bin/gnu/H-x86_64-pc-linux-gnu/bin/../lib/gcc/nios2-elf/5.3.0/libgcc.a(lib2-divmod.o)
 .debug_line    0x00000000000005f6      0x1f0 /home/nathan/Documents/Misc/quartus-free/pkg/quartus-free/opt/altera/18.1/nios2eds/bin/gnu/H-x86_64-pc-linux-gnu/bin/../lib/gcc/nios2-elf/5.3.0/../../../../../H-x86_64-pc-linux-gnu/nios2-elf/lib/libc.a(lib_a-malloc.o)
 .debug_line    0x00000000000007e6      0x3f9 /home/nathan/Documents/Misc/quartus-free/pkg/quartus-free/opt/altera/18.1/nios2eds/bin/gnu/H-x86_64-pc-linux-gnu/bin/../lib/gcc/nios2-elf/5.3.0/../../../../../H-x86_64-pc-linux-gnu/nios2-elf/lib/libc.a(lib_a-mallocr.o)
 .debug_line    0x0000000000000bdf      0x208 /home/nathan/Documents/Misc/quartus-free/pkg/quartus-free/opt/altera/18.1/nios2eds/bin/gnu/H-x86_64-pc-linux-gnu/bin/../lib/gcc/nios2-elf/5.3.0/../../../../../H-x86_64-pc-linux-gnu/nios2-elf/lib/libc.a(lib_a-printf.o)
 .debug_line    0x0000000000000de7      0x245 /home/nathan/Documents/Misc/quartus-free/pkg/quartus-free/opt/altera/18.1/nios2eds/bin/gnu/H-x86_64-pc-linux-gnu/bin/../lib/gcc/nios2-elf/5.3.0/../../../../../H-x86_64-pc-linux-gnu/nios2-elf/lib/libc.a(lib_a-puts.o)
 .debug_line    0x000000000000102c      0x1e6 /home/nathan/Documents/Misc/quartus-free/pkg/quartus-free/opt/altera/18.1/nios2eds/bin/gnu/H-x86_64-pc-linux-gnu/bin/../lib/gcc/nios2-elf/5.3.0/../../../../../H-x86_64-pc-linux-gnu/nios2-elf/lib/libc.a(lib_a-sbrkr.o)
 .debug_line    0x0000000000001212      0x16c /home/nathan/Documents/Misc/quartus-free/pkg/quartus-free/opt/altera/18.1/nios2eds/bin/gnu/H-x86_64-pc-linux-gnu/bin/../lib/gcc/nios2-elf/5.3.0/../../../../../H-x86_64-pc-linux-gnu/nios2-elf/lib/libc.a(lib_a-strlen.o)
 .debug_line    0x000000000000137e      0xc98 /home/nathan/Documents/Misc/quartus-free/pkg/quartus-free/opt/altera/18.1/nios2eds/bin/gnu/H-x86_64-pc-linux-gnu/bin/../lib/gcc/nios2-elf/5.3.0/../../../../../H-x86_64-pc-linux-gnu/nios2-elf/lib/libc.a(lib_a-vfprintf.o)
 .debug_line    0x0000000000002016      0x263 /home/nathan/Documents/Misc/quartus-free/pkg/quartus-free/opt/altera/18.1/nios2eds/bin/gnu/H-x86_64-pc-linux-gnu/bin/../lib/gcc/nios2-elf/5.3.0/../../../../../H-x86_64-pc-linux-gnu/nios2-elf/lib/libc.a(lib_a-wsetup.o)
 .debug_line    0x0000000000002279      0x7ca /home/nathan/Documents/Misc/quartus-free/pkg/quartus-free/opt/altera/18.1/nios2eds/bin/gnu/H-x86_64-pc-linux-gnu/bin/../lib/gcc/nios2-elf/5.3.0/../../../../../H-x86_64-pc-linux-gnu/nios2-elf/lib/libc.a(lib_a-dtoa.o)
 .debug_line    0x0000000000002a43      0x2e7 /home/nathan/Documents/Misc/quartus-free/pkg/quartus-free/opt/altera/18.1/nios2eds/bin/gnu/H-x86_64-pc-linux-gnu/bin/../lib/gcc/nios2-elf/5.3.0/../../../../../H-x86_64-pc-linux-gnu/nios2-elf/lib/libc.a(lib_a-fflush.o)
 .debug_line    0x0000000000002d2a      0x36f /home/nathan/Documents/Misc/quartus-free/pkg/quartus-free/opt/altera/18.1/nios2eds/bin/gnu/H-x86_64-pc-linux-gnu/bin/../lib/gcc/nios2-elf/5.3.0/../../../../../H-x86_64-pc-linux-gnu/nios2-elf/lib/libc.a(lib_a-findfp.o)
 .debug_line    0x0000000000003099      0x2f4 /home/nathan/Documents/Misc/quartus-free/pkg/quartus-free/opt/altera/18.1/nios2eds/bin/gnu/H-x86_64-pc-linux-gnu/bin/../lib/gcc/nios2-elf/5.3.0/../../../../../H-x86_64-pc-linux-gnu/nios2-elf/lib/libc.a(lib_a-freer.o)
 .debug_line    0x000000000000338d      0x342 /home/nathan/Documents/Misc/quartus-free/pkg/quartus-free/opt/altera/18.1/nios2eds/bin/gnu/H-x86_64-pc-linux-gnu/bin/../lib/gcc/nios2-elf/5.3.0/../../../../../H-x86_64-pc-linux-gnu/nios2-elf/lib/libc.a(lib_a-fvwrite.o)
 .debug_line    0x00000000000036cf      0x237 /home/nathan/Documents/Misc/quartus-free/pkg/quartus-free/opt/altera/18.1/nios2eds/bin/gnu/H-x86_64-pc-linux-gnu/bin/../lib/gcc/nios2-elf/5.3.0/../../../../../H-x86_64-pc-linux-gnu/nios2-elf/lib/libc.a(lib_a-fwalk.o)
 .debug_line    0x0000000000003906      0x15d /home/nathan/Documents/Misc/quartus-free/pkg/quartus-free/opt/altera/18.1/nios2eds/bin/gnu/H-x86_64-pc-linux-gnu/bin/../lib/gcc/nios2-elf/5.3.0/../../../../../H-x86_64-pc-linux-gnu/nios2-elf/lib/libc.a(lib_a-impure.o)
 .debug_line    0x0000000000003a63       0x5c /home/nathan/Documents/Misc/quartus-free/pkg/quartus-free/opt/altera/18.1/nios2eds/bin/gnu/H-x86_64-pc-linux-gnu/bin/../lib/gcc/nios2-elf/5.3.0/../../../../../H-x86_64-pc-linux-gnu/nios2-elf/lib/libc.a(lib_a-int_errno.o)
 .debug_line    0x0000000000003abf      0x28b /home/nathan/Documents/Misc/quartus-free/pkg/quartus-free/opt/altera/18.1/nios2eds/bin/gnu/H-x86_64-pc-linux-gnu/bin/../lib/gcc/nios2-elf/5.3.0/../../../../../H-x86_64-pc-linux-gnu/nios2-elf/lib/libc.a(lib_a-locale.o)
 .debug_line    0x0000000000003d4a      0x271 /home/nathan/Documents/Misc/quartus-free/pkg/quartus-free/opt/altera/18.1/nios2eds/bin/gnu/H-x86_64-pc-linux-gnu/bin/../lib/gcc/nios2-elf/5.3.0/../../../../../H-x86_64-pc-linux-gnu/nios2-elf/lib/libc.a(lib_a-makebuf.o)
 .debug_line    0x0000000000003fbb      0x18a /home/nathan/Documents/Misc/quartus-free/pkg/quartus-free/opt/altera/18.1/nios2eds/bin/gnu/H-x86_64-pc-linux-gnu/bin/../lib/gcc/nios2-elf/5.3.0/../../../../../H-x86_64-pc-linux-gnu/nios2-elf/lib/libc.a(lib_a-memchr.o)
 .debug_line    0x0000000000004145      0x189 /home/nathan/Documents/Misc/quartus-free/pkg/quartus-free/opt/altera/18.1/nios2eds/bin/gnu/H-x86_64-pc-linux-gnu/bin/../lib/gcc/nios2-elf/5.3.0/../../../../../H-x86_64-pc-linux-gnu/nios2-elf/lib/libc.a(lib_a-memcpy.o)
 .debug_line    0x00000000000042ce      0x18a /home/nathan/Documents/Misc/quartus-free/pkg/quartus-free/opt/altera/18.1/nios2eds/bin/gnu/H-x86_64-pc-linux-gnu/bin/../lib/gcc/nios2-elf/5.3.0/../../../../../H-x86_64-pc-linux-gnu/nios2-elf/lib/libc.a(lib_a-memmove.o)
 .debug_line    0x0000000000004458      0x18c /home/nathan/Documents/Misc/quartus-free/pkg/quartus-free/opt/altera/18.1/nios2eds/bin/gnu/H-x86_64-pc-linux-gnu/bin/../lib/gcc/nios2-elf/5.3.0/../../../../../H-x86_64-pc-linux-gnu/nios2-elf/lib/libc.a(lib_a-memset.o)
 .debug_line    0x00000000000045e4      0x787 /home/nathan/Documents/Misc/quartus-free/pkg/quartus-free/opt/altera/18.1/nios2eds/bin/gnu/H-x86_64-pc-linux-gnu/bin/../lib/gcc/nios2-elf/5.3.0/../../../../../H-x86_64-pc-linux-gnu/nios2-elf/lib/libc.a(lib_a-mprec.o)
 .debug_line    0x0000000000004d6b      0x2f2 /home/nathan/Documents/Misc/quartus-free/pkg/quartus-free/opt/altera/18.1/nios2eds/bin/gnu/H-x86_64-pc-linux-gnu/bin/../lib/gcc/nios2-elf/5.3.0/../../../../../H-x86_64-pc-linux-gnu/nios2-elf/lib/libc.a(lib_a-reallocr.o)
 .debug_line    0x000000000000505d      0x16c /home/nathan/Documents/Misc/quartus-free/pkg/quartus-free/opt/altera/18.1/nios2eds/bin/gnu/H-x86_64-pc-linux-gnu/bin/../lib/gcc/nios2-elf/5.3.0/../../../../../H-x86_64-pc-linux-gnu/nios2-elf/lib/libc.a(lib_a-s_fpclassify.o)
 .debug_line    0x00000000000051c9      0x267 /home/nathan/Documents/Misc/quartus-free/pkg/quartus-free/opt/altera/18.1/nios2eds/bin/gnu/H-x86_64-pc-linux-gnu/bin/../lib/gcc/nios2-elf/5.3.0/../../../../../H-x86_64-pc-linux-gnu/nios2-elf/lib/libc.a(lib_a-stdio.o)
 .debug_line    0x0000000000005430       0xfe /home/nathan/Documents/Misc/quartus-free/pkg/quartus-free/opt/altera/18.1/nios2eds/bin/gnu/H-x86_64-pc-linux-gnu/bin/../lib/gcc/nios2-elf/5.3.0/../../../../../H-x86_64-pc-linux-gnu/nios2-elf/lib/libc.a(lib_a-strcmp.o)
 .debug_line    0x000000000000552e      0x956 /home/nathan/Documents/Misc/quartus-free/pkg/quartus-free/opt/altera/18.1/nios2eds/bin/gnu/H-x86_64-pc-linux-gnu/bin/../lib/gcc/nios2-elf/5.3.0/../../../../../H-x86_64-pc-linux-gnu/nios2-elf/lib/libc.a(lib_a-vfiprintf.o)
 .debug_line    0x0000000000005e84      0x1f3 /home/nathan/Documents/Misc/quartus-free/pkg/quartus-free/opt/altera/18.1/nios2eds/bin/gnu/H-x86_64-pc-linux-gnu/bin/../lib/gcc/nios2-elf/5.3.0/../../../../../H-x86_64-pc-linux-gnu/nios2-elf/lib/libc.a(lib_a-writer.o)
 .debug_line    0x0000000000006077      0x1f3 /home/nathan/Documents/Misc/quartus-free/pkg/quartus-free/opt/altera/18.1/nios2eds/bin/gnu/H-x86_64-pc-linux-gnu/bin/../lib/gcc/nios2-elf/5.3.0/../../../../../H-x86_64-pc-linux-gnu/nios2-elf/lib/libc.a(closer.o)
 .debug_line    0x000000000000626a      0x1a8 /home/nathan/Documents/Misc/quartus-free/pkg/quartus-free/opt/altera/18.1/nios2eds/bin/gnu/H-x86_64-pc-linux-gnu/bin/../lib/gcc/nios2-elf/5.3.0/../../../../../H-x86_64-pc-linux-gnu/nios2-elf/lib/libc.a(lib_a-callocr.o)
 .debug_line    0x0000000000006412      0x236 /home/nathan/Documents/Misc/quartus-free/pkg/quartus-free/opt/altera/18.1/nios2eds/bin/gnu/H-x86_64-pc-linux-gnu/bin/../lib/gcc/nios2-elf/5.3.0/../../../../../H-x86_64-pc-linux-gnu/nios2-elf/lib/libc.a(lib_a-fclose.o)
 .debug_line    0x0000000000006648      0x2a2 /home/nathan/Documents/Misc/quartus-free/pkg/quartus-free/opt/altera/18.1/nios2eds/bin/gnu/H-x86_64-pc-linux-gnu/bin/../lib/gcc/nios2-elf/5.3.0/../../../../../H-x86_64-pc-linux-gnu/nios2-elf/lib/libc.a(lib_a-fputwc.o)
 .debug_line    0x00000000000068ea      0x1fc /home/nathan/Documents/Misc/quartus-free/pkg/quartus-free/opt/altera/18.1/nios2eds/bin/gnu/H-x86_64-pc-linux-gnu/bin/../lib/gcc/nios2-elf/5.3.0/../../../../../H-x86_64-pc-linux-gnu/nios2-elf/lib/libc.a(lib_a-fstatr.o)
 .debug_line    0x0000000000006ae6      0x1f4 /home/nathan/Documents/Misc/quartus-free/pkg/quartus-free/opt/altera/18.1/nios2eds/bin/gnu/H-x86_64-pc-linux-gnu/bin/../lib/gcc/nios2-elf/5.3.0/../../../../../H-x86_64-pc-linux-gnu/nios2-elf/lib/libc.a(lib_a-isattyr.o)
 .debug_line    0x0000000000006cda      0x1f3 /home/nathan/Documents/Misc/quartus-free/pkg/quartus-free/opt/altera/18.1/nios2eds/bin/gnu/H-x86_64-pc-linux-gnu/bin/../lib/gcc/nios2-elf/5.3.0/../../../../../H-x86_64-pc-linux-gnu/nios2-elf/lib/libc.a(lib_a-lseekr.o)
 .debug_line    0x0000000000006ecd      0x1f2 /home/nathan/Documents/Misc/quartus-free/pkg/quartus-free/opt/altera/18.1/nios2eds/bin/gnu/H-x86_64-pc-linux-gnu/bin/../lib/gcc/nios2-elf/5.3.0/../../../../../H-x86_64-pc-linux-gnu/nios2-elf/lib/libc.a(lib_a-readr.o)
 .debug_line    0x00000000000070bf      0x26e /home/nathan/Documents/Misc/quartus-free/pkg/quartus-free/opt/altera/18.1/nios2eds/bin/gnu/H-x86_64-pc-linux-gnu/bin/../lib/gcc/nios2-elf/5.3.0/../../../../../H-x86_64-pc-linux-gnu/nios2-elf/lib/libc.a(lib_a-wbuf.o)
 .debug_line    0x000000000000732d      0x223 /home/nathan/Documents/Misc/quartus-free/pkg/quartus-free/opt/altera/18.1/nios2eds/bin/gnu/H-x86_64-pc-linux-gnu/bin/../lib/gcc/nios2-elf/5.3.0/../../../../../H-x86_64-pc-linux-gnu/nios2-elf/lib/libc.a(lib_a-wcrtomb.o)
 .debug_line    0x0000000000007550      0x217 /home/nathan/Documents/Misc/quartus-free/pkg/quartus-free/opt/altera/18.1/nios2eds/bin/gnu/H-x86_64-pc-linux-gnu/bin/../lib/gcc/nios2-elf/5.3.0/../../../../../H-x86_64-pc-linux-gnu/nios2-elf/lib/libc.a(lib_a-wctomb_r.o)
 .debug_line    0x0000000000007767      0x12a /home/nathan/Documents/Misc/quartus-free/pkg/quartus-free/opt/altera/18.1/nios2eds/bin/gnu/H-x86_64-pc-linux-gnu/bin/../lib/gcc/nios2-elf/5.3.0/libgcc.a(_udivdi3.o)
 .debug_line    0x0000000000007891      0x13a /home/nathan/Documents/Misc/quartus-free/pkg/quartus-free/opt/altera/18.1/nios2eds/bin/gnu/H-x86_64-pc-linux-gnu/bin/../lib/gcc/nios2-elf/5.3.0/libgcc.a(_umoddi3.o)
 .debug_line    0x00000000000079cb      0x37b /home/nathan/Documents/Misc/quartus-free/pkg/quartus-free/opt/altera/18.1/nios2eds/bin/gnu/H-x86_64-pc-linux-gnu/bin/../lib/gcc/nios2-elf/5.3.0/libgcc.a(adddf3.o)
 .debug_line    0x0000000000007d46      0x2ad /home/nathan/Documents/Misc/quartus-free/pkg/quartus-free/opt/altera/18.1/nios2eds/bin/gnu/H-x86_64-pc-linux-gnu/bin/../lib/gcc/nios2-elf/5.3.0/libgcc.a(divdf3.o)
 .debug_line    0x0000000000007ff3       0xaa /home/nathan/Documents/Misc/quartus-free/pkg/quartus-free/opt/altera/18.1/nios2eds/bin/gnu/H-x86_64-pc-linux-gnu/bin/../lib/gcc/nios2-elf/5.3.0/libgcc.a(eqdf2.o)
 .debug_line    0x000000000000809d       0xcb /home/nathan/Documents/Misc/quartus-free/pkg/quartus-free/opt/altera/18.1/nios2eds/bin/gnu/H-x86_64-pc-linux-gnu/bin/../lib/gcc/nios2-elf/5.3.0/libgcc.a(gedf2.o)
 .debug_line    0x0000000000008168       0xe3 /home/nathan/Documents/Misc/quartus-free/pkg/quartus-free/opt/altera/18.1/nios2eds/bin/gnu/H-x86_64-pc-linux-gnu/bin/../lib/gcc/nios2-elf/5.3.0/libgcc.a(ledf2.o)
 .debug_line    0x000000000000824b      0x1e3 /home/nathan/Documents/Misc/quartus-free/pkg/quartus-free/opt/altera/18.1/nios2eds/bin/gnu/H-x86_64-pc-linux-gnu/bin/../lib/gcc/nios2-elf/5.3.0/libgcc.a(muldf3.o)
 .debug_line    0x000000000000842e      0x3a8 /home/nathan/Documents/Misc/quartus-free/pkg/quartus-free/opt/altera/18.1/nios2eds/bin/gnu/H-x86_64-pc-linux-gnu/bin/../lib/gcc/nios2-elf/5.3.0/libgcc.a(subdf3.o)
 .debug_line    0x00000000000087d6       0x98 /home/nathan/Documents/Misc/quartus-free/pkg/quartus-free/opt/altera/18.1/nios2eds/bin/gnu/H-x86_64-pc-linux-gnu/bin/../lib/gcc/nios2-elf/5.3.0/libgcc.a(fixdfsi.o)
 .debug_line    0x000000000000886e       0x9f /home/nathan/Documents/Misc/quartus-free/pkg/quartus-free/opt/altera/18.1/nios2eds/bin/gnu/H-x86_64-pc-linux-gnu/bin/../lib/gcc/nios2-elf/5.3.0/libgcc.a(floatsidf.o)
 .debug_line    0x000000000000890d       0x92 /home/nathan/Documents/Misc/quartus-free/pkg/quartus-free/opt/altera/18.1/nios2eds/bin/gnu/H-x86_64-pc-linux-gnu/bin/../lib/gcc/nios2-elf/5.3.0/libgcc.a(floatunsidf.o)
 .debug_line    0x000000000000899f       0x53 /home/nathan/Documents/Misc/quartus-free/pkg/quartus-free/opt/altera/18.1/nios2eds/bin/gnu/H-x86_64-pc-linux-gnu/bin/../lib/gcc/nios2-elf/5.3.0/libgcc.a(_clz.o)
 .debug_line    0x00000000000089f2       0xb7 /home/nathan/Documents/Misc/quartus-free/pkg/quartus-free/opt/altera/18.1/nios2eds/bin/gnu/H-x86_64-pc-linux-gnu/bin/../lib/gcc/nios2-elf/5.3.0/libgcc.a(_clzsi2.o)
 .debug_line    0x0000000000008aa9      0x1ac /home/nathan/Documents/Cours/EPFL_RTES_CS476/Code/mini_project_v2/sw/mini_project_v3_bsp//libucosii_bsp.a(alt_close.o)
 .debug_line    0x0000000000008c55      0x174 /home/nathan/Documents/Cours/EPFL_RTES_CS476/Code/mini_project_v2/sw/mini_project_v3_bsp//libucosii_bsp.a(alt_dev.o)
 .debug_line    0x0000000000008dc9       0x51 /home/nathan/Documents/Cours/EPFL_RTES_CS476/Code/mini_project_v2/sw/mini_project_v3_bsp//libucosii_bsp.a(alt_errno.o)
 .debug_line    0x0000000000008e1a      0x1a5 /home/nathan/Documents/Cours/EPFL_RTES_CS476/Code/mini_project_v2/sw/mini_project_v3_bsp//libucosii_bsp.a(alt_fstat.o)
 .debug_line    0x0000000000008fbf      0x1a9 /home/nathan/Documents/Cours/EPFL_RTES_CS476/Code/mini_project_v2/sw/mini_project_v3_bsp//libucosii_bsp.a(alt_isatty.o)
 .debug_line    0x0000000000009168       0x8e /home/nathan/Documents/Cours/EPFL_RTES_CS476/Code/mini_project_v2/sw/mini_project_v3_bsp//libucosii_bsp.a(alt_load.o)
 .debug_line    0x00000000000091f6      0x1aa /home/nathan/Documents/Cours/EPFL_RTES_CS476/Code/mini_project_v2/sw/mini_project_v3_bsp//libucosii_bsp.a(alt_lseek.o)
 .debug_line    0x00000000000093a0      0x12f /home/nathan/Documents/Cours/EPFL_RTES_CS476/Code/mini_project_v2/sw/mini_project_v3_bsp//libucosii_bsp.a(alt_main.o)
 .debug_line    0x00000000000094cf      0x25b /home/nathan/Documents/Cours/EPFL_RTES_CS476/Code/mini_project_v2/sw/mini_project_v3_bsp//libucosii_bsp.a(alt_read.o)
 .debug_line    0x000000000000972a       0xbd /home/nathan/Documents/Cours/EPFL_RTES_CS476/Code/mini_project_v2/sw/mini_project_v3_bsp//libucosii_bsp.a(alt_release_fd.o)
 .debug_line    0x00000000000097e7      0x12b /home/nathan/Documents/Cours/EPFL_RTES_CS476/Code/mini_project_v2/sw/mini_project_v3_bsp//libucosii_bsp.a(alt_sbrk.o)
 .debug_line    0x0000000000009912      0x25a /home/nathan/Documents/Cours/EPFL_RTES_CS476/Code/mini_project_v2/sw/mini_project_v3_bsp//libucosii_bsp.a(alt_write.o)
 .debug_line    0x0000000000009b6c      0x21a /home/nathan/Documents/Cours/EPFL_RTES_CS476/Code/mini_project_v2/sw/mini_project_v3_bsp//libucosii_bsp.a(alt_env_lock.o)
 .debug_line    0x0000000000009d86      0x27e /home/nathan/Documents/Cours/EPFL_RTES_CS476/Code/mini_project_v2/sw/mini_project_v3_bsp//libucosii_bsp.a(alt_malloc_lock.o)
 .debug_line    0x000000000000a004      0x68b /home/nathan/Documents/Cours/EPFL_RTES_CS476/Code/mini_project_v2/sw/mini_project_v3_bsp//libucosii_bsp.a(os_core.o)
 .debug_line    0x000000000000a68f       0xd2 /home/nathan/Documents/Cours/EPFL_RTES_CS476/Code/mini_project_v2/sw/mini_project_v3_bsp//libucosii_bsp.a(os_dbg.o)
 .debug_line    0x000000000000a761      0x4ff /home/nathan/Documents/Cours/EPFL_RTES_CS476/Code/mini_project_v2/sw/mini_project_v3_bsp//libucosii_bsp.a(os_flag.o)
 .debug_line    0x000000000000ac60      0x23e /home/nathan/Documents/Cours/EPFL_RTES_CS476/Code/mini_project_v2/sw/mini_project_v3_bsp//libucosii_bsp.a(os_mem.o)
 .debug_line    0x000000000000ae9e      0x3fb /home/nathan/Documents/Cours/EPFL_RTES_CS476/Code/mini_project_v2/sw/mini_project_v3_bsp//libucosii_bsp.a(os_q.o)
 .debug_line    0x000000000000b299      0x2e0 /home/nathan/Documents/Cours/EPFL_RTES_CS476/Code/mini_project_v2/sw/mini_project_v3_bsp//libucosii_bsp.a(os_sem.o)
 .debug_line    0x000000000000b579      0x52d /home/nathan/Documents/Cours/EPFL_RTES_CS476/Code/mini_project_v2/sw/mini_project_v3_bsp//libucosii_bsp.a(os_task.o)
 .debug_line    0x000000000000baa6      0x1a7 /home/nathan/Documents/Cours/EPFL_RTES_CS476/Code/mini_project_v2/sw/mini_project_v3_bsp//libucosii_bsp.a(os_time.o)
 .debug_line    0x000000000000bc4d      0x179 /home/nathan/Documents/Cours/EPFL_RTES_CS476/Code/mini_project_v2/sw/mini_project_v3_bsp//libucosii_bsp.a(alt_sys_init.o)
 .debug_line    0x000000000000bdc6      0x155 /home/nathan/Documents/Cours/EPFL_RTES_CS476/Code/mini_project_v2/sw/mini_project_v3_bsp//libucosii_bsp.a(altera_avalon_jtag_uart_fd.o)
 .debug_line    0x000000000000bf1b      0x225 /home/nathan/Documents/Cours/EPFL_RTES_CS476/Code/mini_project_v2/sw/mini_project_v3_bsp//libucosii_bsp.a(altera_avalon_jtag_uart_init.o)
 .debug_line    0x000000000000c140      0x157 /home/nathan/Documents/Cours/EPFL_RTES_CS476/Code/mini_project_v2/sw/mini_project_v3_bsp//libucosii_bsp.a(altera_avalon_jtag_uart_ioctl.o)
 .debug_line    0x000000000000c297      0x1db /home/nathan/Documents/Cours/EPFL_RTES_CS476/Code/mini_project_v2/sw/mini_project_v3_bsp//libucosii_bsp.a(altera_avalon_jtag_uart_read.o)
 .debug_line    0x000000000000c472      0x1dc /home/nathan/Documents/Cours/EPFL_RTES_CS476/Code/mini_project_v2/sw/mini_project_v3_bsp//libucosii_bsp.a(altera_avalon_jtag_uart_write.o)
 .debug_line    0x000000000000c64e       0xfd /home/nathan/Documents/Cours/EPFL_RTES_CS476/Code/mini_project_v2/sw/mini_project_v3_bsp//libucosii_bsp.a(altera_avalon_timer_sc.o)
 .debug_line    0x000000000000c74b       0xf9 /home/nathan/Documents/Cours/EPFL_RTES_CS476/Code/mini_project_v2/sw/mini_project_v3_bsp//libucosii_bsp.a(alt_alarm_start.o)
 .debug_line    0x000000000000c844       0x51 /home/nathan/Documents/Cours/EPFL_RTES_CS476/Code/mini_project_v2/sw/mini_project_v3_bsp//libucosii_bsp.a(alt_dcache_flush_all.o)
 .debug_line    0x000000000000c895       0xcf /home/nathan/Documents/Cours/EPFL_RTES_CS476/Code/mini_project_v2/sw/mini_project_v3_bsp//libucosii_bsp.a(alt_dev_llist_insert.o)
 .debug_line    0x000000000000c964       0x59 /home/nathan/Documents/Cours/EPFL_RTES_CS476/Code/mini_project_v2/sw/mini_project_v3_bsp//libucosii_bsp.a(alt_do_ctors.o)
 .debug_line    0x000000000000c9bd       0x59 /home/nathan/Documents/Cours/EPFL_RTES_CS476/Code/mini_project_v2/sw/mini_project_v3_bsp//libucosii_bsp.a(alt_do_dtors.o)
 .debug_line    0x000000000000ca16       0x4f /home/nathan/Documents/Cours/EPFL_RTES_CS476/Code/mini_project_v2/sw/mini_project_v3_bsp//libucosii_bsp.a(alt_icache_flush_all.o)
 .debug_line    0x000000000000ca65       0xeb /home/nathan/Documents/Cours/EPFL_RTES_CS476/Code/mini_project_v2/sw/mini_project_v3_bsp//libucosii_bsp.a(alt_iic.o)
 .debug_line    0x000000000000cb50       0xdb /home/nathan/Documents/Cours/EPFL_RTES_CS476/Code/mini_project_v2/sw/mini_project_v3_bsp//libucosii_bsp.a(alt_iic_isr_register.o)
 .debug_line    0x000000000000cc2b      0x17a /home/nathan/Documents/Cours/EPFL_RTES_CS476/Code/mini_project_v2/sw/mini_project_v3_bsp//libucosii_bsp.a(alt_io_redirect.o)
 .debug_line    0x000000000000cda5       0x6b /home/nathan/Documents/Cours/EPFL_RTES_CS476/Code/mini_project_v2/sw/mini_project_v3_bsp//libucosii_bsp.a(alt_irq_entry.o)
 .debug_line    0x000000000000ce10       0xc8 /home/nathan/Documents/Cours/EPFL_RTES_CS476/Code/mini_project_v2/sw/mini_project_v3_bsp//libucosii_bsp.a(alt_irq_handler.o)
 .debug_line    0x000000000000ced8       0x50 /home/nathan/Documents/Cours/EPFL_RTES_CS476/Code/mini_project_v2/sw/mini_project_v3_bsp//libucosii_bsp.a(alt_irq_vars.o)
 .debug_line    0x000000000000cf28      0x137 /home/nathan/Documents/Cours/EPFL_RTES_CS476/Code/mini_project_v2/sw/mini_project_v3_bsp//libucosii_bsp.a(alt_open.o)
 .debug_line    0x000000000000d05f       0xff /home/nathan/Documents/Cours/EPFL_RTES_CS476/Code/mini_project_v2/sw/mini_project_v3_bsp//libucosii_bsp.a(alt_tick.o)
 .debug_line    0x000000000000d15e       0x51 /home/nathan/Documents/Cours/EPFL_RTES_CS476/Code/mini_project_v2/sw/mini_project_v3_bsp//libucosii_bsp.a(altera_nios2_gen2_irq.o)
 .debug_line    0x000000000000d1af       0x86 /home/nathan/Documents/Cours/EPFL_RTES_CS476/Code/mini_project_v2/sw/mini_project_v3_bsp//libucosii_bsp.a(os_cpu_a.o)
 .debug_line    0x000000000000d235      0x222 /home/nathan/Documents/Cours/EPFL_RTES_CS476/Code/mini_project_v2/sw/mini_project_v3_bsp//libucosii_bsp.a(os_cpu_c.o)
 .debug_line    0x000000000000d457       0xb3 /home/nathan/Documents/Cours/EPFL_RTES_CS476/Code/mini_project_v2/sw/mini_project_v3_bsp//libucosii_bsp.a(alt_exception_entry.o)
 .debug_line    0x000000000000d50a       0xc4 /home/nathan/Documents/Cours/EPFL_RTES_CS476/Code/mini_project_v2/sw/mini_project_v3_bsp//libucosii_bsp.a(alt_find_dev.o)
 .debug_line    0x000000000000d5ce       0xe0 /home/nathan/Documents/Cours/EPFL_RTES_CS476/Code/mini_project_v2/sw/mini_project_v3_bsp//libucosii_bsp.a(alt_find_file.o)
 .debug_line    0x000000000000d6ae      0x126 /home/nathan/Documents/Cours/EPFL_RTES_CS476/Code/mini_project_v2/sw/mini_project_v3_bsp//libucosii_bsp.a(alt_get_fd.o)
 .debug_line    0x000000000000d7d4       0xba /home/nathan/Documents/Cours/EPFL_RTES_CS476/Code/mini_project_v2/sw/mini_project_v3_bsp//libucosii_bsp.a(alt_instruction_exception_entry.o)
 .debug_line    0x000000000000d88e       0xe4 /home/nathan/Documents/Misc/quartus-free/pkg/quartus-free/opt/altera/18.1/nios2eds/bin/gnu/H-x86_64-pc-linux-gnu/bin/../lib/gcc/nios2-elf/5.3.0/../../../../../H-x86_64-pc-linux-gnu/nios2-elf/lib/libc.a(lib_a-atexit.o)
 .debug_line    0x000000000000d972      0x1f9 /home/nathan/Documents/Misc/quartus-free/pkg/quartus-free/opt/altera/18.1/nios2eds/bin/gnu/H-x86_64-pc-linux-gnu/bin/../lib/gcc/nios2-elf/5.3.0/../../../../../H-x86_64-pc-linux-gnu/nios2-elf/lib/libc.a(lib_a-exit.o)
 .debug_line    0x000000000000db6b      0x173 /home/nathan/Documents/Misc/quartus-free/pkg/quartus-free/opt/altera/18.1/nios2eds/bin/gnu/H-x86_64-pc-linux-gnu/bin/../lib/gcc/nios2-elf/5.3.0/../../../../../H-x86_64-pc-linux-gnu/nios2-elf/lib/libc.a(lib_a-memcmp.o)
 .debug_line    0x000000000000dcde      0x21c /home/nathan/Documents/Misc/quartus-free/pkg/quartus-free/opt/altera/18.1/nios2eds/bin/gnu/H-x86_64-pc-linux-gnu/bin/../lib/gcc/nios2-elf/5.3.0/../../../../../H-x86_64-pc-linux-gnu/nios2-elf/lib/libc.a(lib_a-__atexit.o)
 .debug_line    0x000000000000defa      0x237 /home/nathan/Documents/Misc/quartus-free/pkg/quartus-free/opt/altera/18.1/nios2eds/bin/gnu/H-x86_64-pc-linux-gnu/bin/../lib/gcc/nios2-elf/5.3.0/../../../../../H-x86_64-pc-linux-gnu/nios2-elf/lib/libc.a(lib_a-__call_atexit.o)
 .debug_line    0x000000000000e131       0xce /home/nathan/Documents/Cours/EPFL_RTES_CS476/Code/mini_project_v2/sw/mini_project_v3_bsp//libucosii_bsp.a(alt_exit.o)

.debug_frame    0x0000000000000000     0x31cc
 *(.debug_frame)
 .debug_frame   0x0000000000000000      0x16c obj/default/mini_project_with_fake_camera.o
 .debug_frame   0x000000000000016c       0x50 /home/nathan/Documents/Misc/quartus-free/pkg/quartus-free/opt/altera/18.1/nios2eds/bin/gnu/H-x86_64-pc-linux-gnu/bin/../lib/gcc/nios2-elf/5.3.0/libgcc.a(lib2-divmod.o)
 .debug_frame   0x00000000000001bc       0x30 /home/nathan/Documents/Misc/quartus-free/pkg/quartus-free/opt/altera/18.1/nios2eds/bin/gnu/H-x86_64-pc-linux-gnu/bin/../lib/gcc/nios2-elf/5.3.0/../../../../../H-x86_64-pc-linux-gnu/nios2-elf/lib/libc.a(lib_a-malloc.o)
 .debug_frame   0x00000000000001ec       0x54 /home/nathan/Documents/Misc/quartus-free/pkg/quartus-free/opt/altera/18.1/nios2eds/bin/gnu/H-x86_64-pc-linux-gnu/bin/../lib/gcc/nios2-elf/5.3.0/../../../../../H-x86_64-pc-linux-gnu/nios2-elf/lib/libc.a(lib_a-mallocr.o)
 .debug_frame   0x0000000000000240       0x48 /home/nathan/Documents/Misc/quartus-free/pkg/quartus-free/opt/altera/18.1/nios2eds/bin/gnu/H-x86_64-pc-linux-gnu/bin/../lib/gcc/nios2-elf/5.3.0/../../../../../H-x86_64-pc-linux-gnu/nios2-elf/lib/libc.a(lib_a-printf.o)
 .debug_frame   0x0000000000000288       0x48 /home/nathan/Documents/Misc/quartus-free/pkg/quartus-free/opt/altera/18.1/nios2eds/bin/gnu/H-x86_64-pc-linux-gnu/bin/../lib/gcc/nios2-elf/5.3.0/../../../../../H-x86_64-pc-linux-gnu/nios2-elf/lib/libc.a(lib_a-puts.o)
 .debug_frame   0x00000000000002d0       0x38 /home/nathan/Documents/Misc/quartus-free/pkg/quartus-free/opt/altera/18.1/nios2eds/bin/gnu/H-x86_64-pc-linux-gnu/bin/../lib/gcc/nios2-elf/5.3.0/../../../../../H-x86_64-pc-linux-gnu/nios2-elf/lib/libc.a(lib_a-sbrkr.o)
 .debug_frame   0x0000000000000308       0x20 /home/nathan/Documents/Misc/quartus-free/pkg/quartus-free/opt/altera/18.1/nios2eds/bin/gnu/H-x86_64-pc-linux-gnu/bin/../lib/gcc/nios2-elf/5.3.0/../../../../../H-x86_64-pc-linux-gnu/nios2-elf/lib/libc.a(lib_a-strlen.o)
 .debug_frame   0x0000000000000328       0x98 /home/nathan/Documents/Misc/quartus-free/pkg/quartus-free/opt/altera/18.1/nios2eds/bin/gnu/H-x86_64-pc-linux-gnu/bin/../lib/gcc/nios2-elf/5.3.0/../../../../../H-x86_64-pc-linux-gnu/nios2-elf/lib/libc.a(lib_a-vfprintf.o)
 .debug_frame   0x00000000000003c0       0x38 /home/nathan/Documents/Misc/quartus-free/pkg/quartus-free/opt/altera/18.1/nios2eds/bin/gnu/H-x86_64-pc-linux-gnu/bin/../lib/gcc/nios2-elf/5.3.0/../../../../../H-x86_64-pc-linux-gnu/nios2-elf/lib/libc.a(lib_a-wsetup.o)
 .debug_frame   0x00000000000003f8       0x98 /home/nathan/Documents/Misc/quartus-free/pkg/quartus-free/opt/altera/18.1/nios2eds/bin/gnu/H-x86_64-pc-linux-gnu/bin/../lib/gcc/nios2-elf/5.3.0/../../../../../H-x86_64-pc-linux-gnu/nios2-elf/lib/libc.a(lib_a-dtoa.o)
 .debug_frame   0x0000000000000490       0x7c /home/nathan/Documents/Misc/quartus-free/pkg/quartus-free/opt/altera/18.1/nios2eds/bin/gnu/H-x86_64-pc-linux-gnu/bin/../lib/gcc/nios2-elf/5.3.0/../../../../../H-x86_64-pc-linux-gnu/nios2-elf/lib/libc.a(lib_a-fflush.o)
 .debug_frame   0x000000000000050c      0x160 /home/nathan/Documents/Misc/quartus-free/pkg/quartus-free/opt/altera/18.1/nios2eds/bin/gnu/H-x86_64-pc-linux-gnu/bin/../lib/gcc/nios2-elf/5.3.0/../../../../../H-x86_64-pc-linux-gnu/nios2-elf/lib/libc.a(lib_a-findfp.o)
 .debug_frame   0x000000000000066c       0x70 /home/nathan/Documents/Misc/quartus-free/pkg/quartus-free/opt/altera/18.1/nios2eds/bin/gnu/H-x86_64-pc-linux-gnu/bin/../lib/gcc/nios2-elf/5.3.0/../../../../../H-x86_64-pc-linux-gnu/nios2-elf/lib/libc.a(lib_a-freer.o)
 .debug_frame   0x00000000000006dc       0x78 /home/nathan/Documents/Misc/quartus-free/pkg/quartus-free/opt/altera/18.1/nios2eds/bin/gnu/H-x86_64-pc-linux-gnu/bin/../lib/gcc/nios2-elf/5.3.0/../../../../../H-x86_64-pc-linux-gnu/nios2-elf/lib/libc.a(lib_a-fvwrite.o)
 .debug_frame   0x0000000000000754       0x90 /home/nathan/Documents/Misc/quartus-free/pkg/quartus-free/opt/altera/18.1/nios2eds/bin/gnu/H-x86_64-pc-linux-gnu/bin/../lib/gcc/nios2-elf/5.3.0/../../../../../H-x86_64-pc-linux-gnu/nios2-elf/lib/libc.a(lib_a-fwalk.o)
 .debug_frame   0x00000000000007e4       0xa8 /home/nathan/Documents/Misc/quartus-free/pkg/quartus-free/opt/altera/18.1/nios2eds/bin/gnu/H-x86_64-pc-linux-gnu/bin/../lib/gcc/nios2-elf/5.3.0/../../../../../H-x86_64-pc-linux-gnu/nios2-elf/lib/libc.a(lib_a-locale.o)
 .debug_frame   0x000000000000088c       0x4c /home/nathan/Documents/Misc/quartus-free/pkg/quartus-free/opt/altera/18.1/nios2eds/bin/gnu/H-x86_64-pc-linux-gnu/bin/../lib/gcc/nios2-elf/5.3.0/../../../../../H-x86_64-pc-linux-gnu/nios2-elf/lib/libc.a(lib_a-makebuf.o)
 .debug_frame   0x00000000000008d8       0x20 /home/nathan/Documents/Misc/quartus-free/pkg/quartus-free/opt/altera/18.1/nios2eds/bin/gnu/H-x86_64-pc-linux-gnu/bin/../lib/gcc/nios2-elf/5.3.0/../../../../../H-x86_64-pc-linux-gnu/nios2-elf/lib/libc.a(lib_a-memchr.o)
 .debug_frame   0x00000000000008f8       0x38 /home/nathan/Documents/Misc/quartus-free/pkg/quartus-free/opt/altera/18.1/nios2eds/bin/gnu/H-x86_64-pc-linux-gnu/bin/../lib/gcc/nios2-elf/5.3.0/../../../../../H-x86_64-pc-linux-gnu/nios2-elf/lib/libc.a(lib_a-memcpy.o)
 .debug_frame   0x0000000000000930       0x20 /home/nathan/Documents/Misc/quartus-free/pkg/quartus-free/opt/altera/18.1/nios2eds/bin/gnu/H-x86_64-pc-linux-gnu/bin/../lib/gcc/nios2-elf/5.3.0/../../../../../H-x86_64-pc-linux-gnu/nios2-elf/lib/libc.a(lib_a-memmove.o)
 .debug_frame   0x0000000000000950       0x20 /home/nathan/Documents/Misc/quartus-free/pkg/quartus-free/opt/altera/18.1/nios2eds/bin/gnu/H-x86_64-pc-linux-gnu/bin/../lib/gcc/nios2-elf/5.3.0/../../../../../H-x86_64-pc-linux-gnu/nios2-elf/lib/libc.a(lib_a-memset.o)
 .debug_frame   0x0000000000000970      0x2e0 /home/nathan/Documents/Misc/quartus-free/pkg/quartus-free/opt/altera/18.1/nios2eds/bin/gnu/H-x86_64-pc-linux-gnu/bin/../lib/gcc/nios2-elf/5.3.0/../../../../../H-x86_64-pc-linux-gnu/nios2-elf/lib/libc.a(lib_a-mprec.o)
 .debug_frame   0x0000000000000c50       0x70 /home/nathan/Documents/Misc/quartus-free/pkg/quartus-free/opt/altera/18.1/nios2eds/bin/gnu/H-x86_64-pc-linux-gnu/bin/../lib/gcc/nios2-elf/5.3.0/../../../../../H-x86_64-pc-linux-gnu/nios2-elf/lib/libc.a(lib_a-reallocr.o)
 .debug_frame   0x0000000000000cc0       0x20 /home/nathan/Documents/Misc/quartus-free/pkg/quartus-free/opt/altera/18.1/nios2eds/bin/gnu/H-x86_64-pc-linux-gnu/bin/../lib/gcc/nios2-elf/5.3.0/../../../../../H-x86_64-pc-linux-gnu/nios2-elf/lib/libc.a(lib_a-s_fpclassify.o)
 .debug_frame   0x0000000000000ce0       0xb4 /home/nathan/Documents/Misc/quartus-free/pkg/quartus-free/opt/altera/18.1/nios2eds/bin/gnu/H-x86_64-pc-linux-gnu/bin/../lib/gcc/nios2-elf/5.3.0/../../../../../H-x86_64-pc-linux-gnu/nios2-elf/lib/libc.a(lib_a-stdio.o)
 .debug_frame   0x0000000000000d94       0x20 /home/nathan/Documents/Misc/quartus-free/pkg/quartus-free/opt/altera/18.1/nios2eds/bin/gnu/H-x86_64-pc-linux-gnu/bin/../lib/gcc/nios2-elf/5.3.0/../../../../../H-x86_64-pc-linux-gnu/nios2-elf/lib/libc.a(lib_a-strcmp.o)
 .debug_frame   0x0000000000000db4       0xec /home/nathan/Documents/Misc/quartus-free/pkg/quartus-free/opt/altera/18.1/nios2eds/bin/gnu/H-x86_64-pc-linux-gnu/bin/../lib/gcc/nios2-elf/5.3.0/../../../../../H-x86_64-pc-linux-gnu/nios2-elf/lib/libc.a(lib_a-vfiprintf.o)
 .debug_frame   0x0000000000000ea0       0x38 /home/nathan/Documents/Misc/quartus-free/pkg/quartus-free/opt/altera/18.1/nios2eds/bin/gnu/H-x86_64-pc-linux-gnu/bin/../lib/gcc/nios2-elf/5.3.0/../../../../../H-x86_64-pc-linux-gnu/nios2-elf/lib/libc.a(lib_a-writer.o)
 .debug_frame   0x0000000000000ed8       0x38 /home/nathan/Documents/Misc/quartus-free/pkg/quartus-free/opt/altera/18.1/nios2eds/bin/gnu/H-x86_64-pc-linux-gnu/bin/../lib/gcc/nios2-elf/5.3.0/../../../../../H-x86_64-pc-linux-gnu/nios2-elf/lib/libc.a(closer.o)
 .debug_frame   0x0000000000000f10       0x40 /home/nathan/Documents/Misc/quartus-free/pkg/quartus-free/opt/altera/18.1/nios2eds/bin/gnu/H-x86_64-pc-linux-gnu/bin/../lib/gcc/nios2-elf/5.3.0/../../../../../H-x86_64-pc-linux-gnu/nios2-elf/lib/libc.a(lib_a-callocr.o)
 .debug_frame   0x0000000000000f50       0x54 /home/nathan/Documents/Misc/quartus-free/pkg/quartus-free/opt/altera/18.1/nios2eds/bin/gnu/H-x86_64-pc-linux-gnu/bin/../lib/gcc/nios2-elf/5.3.0/../../../../../H-x86_64-pc-linux-gnu/nios2-elf/lib/libc.a(lib_a-fclose.o)
 .debug_frame   0x0000000000000fa4       0x80 /home/nathan/Documents/Misc/quartus-free/pkg/quartus-free/opt/altera/18.1/nios2eds/bin/gnu/H-x86_64-pc-linux-gnu/bin/../lib/gcc/nios2-elf/5.3.0/../../../../../H-x86_64-pc-linux-gnu/nios2-elf/lib/libc.a(lib_a-fputwc.o)
 .debug_frame   0x0000000000001024       0x38 /home/nathan/Documents/Misc/quartus-free/pkg/quartus-free/opt/altera/18.1/nios2eds/bin/gnu/H-x86_64-pc-linux-gnu/bin/../lib/gcc/nios2-elf/5.3.0/../../../../../H-x86_64-pc-linux-gnu/nios2-elf/lib/libc.a(lib_a-fstatr.o)
 .debug_frame   0x000000000000105c       0x38 /home/nathan/Documents/Misc/quartus-free/pkg/quartus-free/opt/altera/18.1/nios2eds/bin/gnu/H-x86_64-pc-linux-gnu/bin/../lib/gcc/nios2-elf/5.3.0/../../../../../H-x86_64-pc-linux-gnu/nios2-elf/lib/libc.a(lib_a-isattyr.o)
 .debug_frame   0x0000000000001094       0x38 /home/nathan/Documents/Misc/quartus-free/pkg/quartus-free/opt/altera/18.1/nios2eds/bin/gnu/H-x86_64-pc-linux-gnu/bin/../lib/gcc/nios2-elf/5.3.0/../../../../../H-x86_64-pc-linux-gnu/nios2-elf/lib/libc.a(lib_a-lseekr.o)
 .debug_frame   0x00000000000010cc       0x38 /home/nathan/Documents/Misc/quartus-free/pkg/quartus-free/opt/altera/18.1/nios2eds/bin/gnu/H-x86_64-pc-linux-gnu/bin/../lib/gcc/nios2-elf/5.3.0/../../../../../H-x86_64-pc-linux-gnu/nios2-elf/lib/libc.a(lib_a-readr.o)
 .debug_frame   0x0000000000001104       0x50 /home/nathan/Documents/Misc/quartus-free/pkg/quartus-free/opt/altera/18.1/nios2eds/bin/gnu/H-x86_64-pc-linux-gnu/bin/../lib/gcc/nios2-elf/5.3.0/../../../../../H-x86_64-pc-linux-gnu/nios2-elf/lib/libc.a(lib_a-wbuf.o)
 .debug_frame   0x0000000000001154       0x70 /home/nathan/Documents/Misc/quartus-free/pkg/quartus-free/opt/altera/18.1/nios2eds/bin/gnu/H-x86_64-pc-linux-gnu/bin/../lib/gcc/nios2-elf/5.3.0/../../../../../H-x86_64-pc-linux-gnu/nios2-elf/lib/libc.a(lib_a-wcrtomb.o)
 .debug_frame   0x00000000000011c4       0x44 /home/nathan/Documents/Misc/quartus-free/pkg/quartus-free/opt/altera/18.1/nios2eds/bin/gnu/H-x86_64-pc-linux-gnu/bin/../lib/gcc/nios2-elf/5.3.0/../../../../../H-x86_64-pc-linux-gnu/nios2-elf/lib/libc.a(lib_a-wctomb_r.o)
 .debug_frame   0x0000000000001208       0x54 /home/nathan/Documents/Misc/quartus-free/pkg/quartus-free/opt/altera/18.1/nios2eds/bin/gnu/H-x86_64-pc-linux-gnu/bin/../lib/gcc/nios2-elf/5.3.0/libgcc.a(_udivdi3.o)
 .debug_frame   0x000000000000125c       0x54 /home/nathan/Documents/Misc/quartus-free/pkg/quartus-free/opt/altera/18.1/nios2eds/bin/gnu/H-x86_64-pc-linux-gnu/bin/../lib/gcc/nios2-elf/5.3.0/libgcc.a(_umoddi3.o)
 .debug_frame   0x00000000000012b0       0x40 /home/nathan/Documents/Misc/quartus-free/pkg/quartus-free/opt/altera/18.1/nios2eds/bin/gnu/H-x86_64-pc-linux-gnu/bin/../lib/gcc/nios2-elf/5.3.0/libgcc.a(adddf3.o)
 .debug_frame   0x00000000000012f0       0x58 /home/nathan/Documents/Misc/quartus-free/pkg/quartus-free/opt/altera/18.1/nios2eds/bin/gnu/H-x86_64-pc-linux-gnu/bin/../lib/gcc/nios2-elf/5.3.0/libgcc.a(divdf3.o)
 .debug_frame   0x0000000000001348       0x20 /home/nathan/Documents/Misc/quartus-free/pkg/quartus-free/opt/altera/18.1/nios2eds/bin/gnu/H-x86_64-pc-linux-gnu/bin/../lib/gcc/nios2-elf/5.3.0/libgcc.a(eqdf2.o)
 .debug_frame   0x0000000000001368       0x20 /home/nathan/Documents/Misc/quartus-free/pkg/quartus-free/opt/altera/18.1/nios2eds/bin/gnu/H-x86_64-pc-linux-gnu/bin/../lib/gcc/nios2-elf/5.3.0/libgcc.a(gedf2.o)
 .debug_frame   0x0000000000001388       0x20 /home/nathan/Documents/Misc/quartus-free/pkg/quartus-free/opt/altera/18.1/nios2eds/bin/gnu/H-x86_64-pc-linux-gnu/bin/../lib/gcc/nios2-elf/5.3.0/libgcc.a(ledf2.o)
 .debug_frame   0x00000000000013a8       0x58 /home/nathan/Documents/Misc/quartus-free/pkg/quartus-free/opt/altera/18.1/nios2eds/bin/gnu/H-x86_64-pc-linux-gnu/bin/../lib/gcc/nios2-elf/5.3.0/libgcc.a(muldf3.o)
 .debug_frame   0x0000000000001400       0x44 /home/nathan/Documents/Misc/quartus-free/pkg/quartus-free/opt/altera/18.1/nios2eds/bin/gnu/H-x86_64-pc-linux-gnu/bin/../lib/gcc/nios2-elf/5.3.0/libgcc.a(subdf3.o)
 .debug_frame   0x0000000000001444       0x20 /home/nathan/Documents/Misc/quartus-free/pkg/quartus-free/opt/altera/18.1/nios2eds/bin/gnu/H-x86_64-pc-linux-gnu/bin/../lib/gcc/nios2-elf/5.3.0/libgcc.a(fixdfsi.o)
 .debug_frame   0x0000000000001464       0x38 /home/nathan/Documents/Misc/quartus-free/pkg/quartus-free/opt/altera/18.1/nios2eds/bin/gnu/H-x86_64-pc-linux-gnu/bin/../lib/gcc/nios2-elf/5.3.0/libgcc.a(floatsidf.o)
 .debug_frame   0x000000000000149c       0x34 /home/nathan/Documents/Misc/quartus-free/pkg/quartus-free/opt/altera/18.1/nios2eds/bin/gnu/H-x86_64-pc-linux-gnu/bin/../lib/gcc/nios2-elf/5.3.0/libgcc.a(floatunsidf.o)
 .debug_frame   0x00000000000014d0       0x20 /home/nathan/Documents/Misc/quartus-free/pkg/quartus-free/opt/altera/18.1/nios2eds/bin/gnu/H-x86_64-pc-linux-gnu/bin/../lib/gcc/nios2-elf/5.3.0/libgcc.a(_clzsi2.o)
 .debug_frame   0x00000000000014f0       0x60 /home/nathan/Documents/Cours/EPFL_RTES_CS476/Code/mini_project_v2/sw/mini_project_v3_bsp//libucosii_bsp.a(alt_close.o)
 .debug_frame   0x0000000000001550       0x34 /home/nathan/Documents/Cours/EPFL_RTES_CS476/Code/mini_project_v2/sw/mini_project_v3_bsp//libucosii_bsp.a(alt_dev.o)
 .debug_frame   0x0000000000001584       0x60 /home/nathan/Documents/Cours/EPFL_RTES_CS476/Code/mini_project_v2/sw/mini_project_v3_bsp//libucosii_bsp.a(alt_fstat.o)
 .debug_frame   0x00000000000015e4       0x60 /home/nathan/Documents/Cours/EPFL_RTES_CS476/Code/mini_project_v2/sw/mini_project_v3_bsp//libucosii_bsp.a(alt_isatty.o)
 .debug_frame   0x0000000000001644       0x5c /home/nathan/Documents/Cours/EPFL_RTES_CS476/Code/mini_project_v2/sw/mini_project_v3_bsp//libucosii_bsp.a(alt_load.o)
 .debug_frame   0x00000000000016a0       0x60 /home/nathan/Documents/Cours/EPFL_RTES_CS476/Code/mini_project_v2/sw/mini_project_v3_bsp//libucosii_bsp.a(alt_lseek.o)
 .debug_frame   0x0000000000001700       0x2c /home/nathan/Documents/Cours/EPFL_RTES_CS476/Code/mini_project_v2/sw/mini_project_v3_bsp//libucosii_bsp.a(alt_main.o)
 .debug_frame   0x000000000000172c       0x60 /home/nathan/Documents/Cours/EPFL_RTES_CS476/Code/mini_project_v2/sw/mini_project_v3_bsp//libucosii_bsp.a(alt_read.o)
 .debug_frame   0x000000000000178c       0x34 /home/nathan/Documents/Cours/EPFL_RTES_CS476/Code/mini_project_v2/sw/mini_project_v3_bsp//libucosii_bsp.a(alt_release_fd.o)
 .debug_frame   0x00000000000017c0       0x34 /home/nathan/Documents/Cours/EPFL_RTES_CS476/Code/mini_project_v2/sw/mini_project_v3_bsp//libucosii_bsp.a(alt_sbrk.o)
 .debug_frame   0x00000000000017f4       0x60 /home/nathan/Documents/Cours/EPFL_RTES_CS476/Code/mini_project_v2/sw/mini_project_v3_bsp//libucosii_bsp.a(alt_write.o)
 .debug_frame   0x0000000000001854       0x60 /home/nathan/Documents/Cours/EPFL_RTES_CS476/Code/mini_project_v2/sw/mini_project_v3_bsp//libucosii_bsp.a(alt_env_lock.o)
 .debug_frame   0x00000000000018b4       0x64 /home/nathan/Documents/Cours/EPFL_RTES_CS476/Code/mini_project_v2/sw/mini_project_v3_bsp//libucosii_bsp.a(alt_malloc_lock.o)
 .debug_frame   0x0000000000001918      0x530 /home/nathan/Documents/Cours/EPFL_RTES_CS476/Code/mini_project_v2/sw/mini_project_v3_bsp//libucosii_bsp.a(os_core.o)
 .debug_frame   0x0000000000001e48       0x34 /home/nathan/Documents/Cours/EPFL_RTES_CS476/Code/mini_project_v2/sw/mini_project_v3_bsp//libucosii_bsp.a(os_dbg.o)
 .debug_frame   0x0000000000001e7c      0x200 /home/nathan/Documents/Cours/EPFL_RTES_CS476/Code/mini_project_v2/sw/mini_project_v3_bsp//libucosii_bsp.a(os_flag.o)
 .debug_frame   0x000000000000207c      0x118 /home/nathan/Documents/Cours/EPFL_RTES_CS476/Code/mini_project_v2/sw/mini_project_v3_bsp//libucosii_bsp.a(os_mem.o)
 .debug_frame   0x0000000000002194      0x1bc /home/nathan/Documents/Cours/EPFL_RTES_CS476/Code/mini_project_v2/sw/mini_project_v3_bsp//libucosii_bsp.a(os_q.o)
 .debug_frame   0x0000000000002350      0x144 /home/nathan/Documents/Cours/EPFL_RTES_CS476/Code/mini_project_v2/sw/mini_project_v3_bsp//libucosii_bsp.a(os_sem.o)
 .debug_frame   0x0000000000002494      0x1e4 /home/nathan/Documents/Cours/EPFL_RTES_CS476/Code/mini_project_v2/sw/mini_project_v3_bsp//libucosii_bsp.a(os_task.o)
 .debug_frame   0x0000000000002678       0xd8 /home/nathan/Documents/Cours/EPFL_RTES_CS476/Code/mini_project_v2/sw/mini_project_v3_bsp//libucosii_bsp.a(os_time.o)
 .debug_frame   0x0000000000002750       0x88 /home/nathan/Documents/Cours/EPFL_RTES_CS476/Code/mini_project_v2/sw/mini_project_v3_bsp//libucosii_bsp.a(alt_sys_init.o)
 .debug_frame   0x00000000000027d8       0xb0 /home/nathan/Documents/Cours/EPFL_RTES_CS476/Code/mini_project_v2/sw/mini_project_v3_bsp//libucosii_bsp.a(altera_avalon_jtag_uart_fd.o)
 .debug_frame   0x0000000000002888       0xac /home/nathan/Documents/Cours/EPFL_RTES_CS476/Code/mini_project_v2/sw/mini_project_v3_bsp//libucosii_bsp.a(altera_avalon_jtag_uart_init.o)
 .debug_frame   0x0000000000002934       0x34 /home/nathan/Documents/Cours/EPFL_RTES_CS476/Code/mini_project_v2/sw/mini_project_v3_bsp//libucosii_bsp.a(altera_avalon_jtag_uart_ioctl.o)
 .debug_frame   0x0000000000002968       0x38 /home/nathan/Documents/Cours/EPFL_RTES_CS476/Code/mini_project_v2/sw/mini_project_v3_bsp//libucosii_bsp.a(altera_avalon_jtag_uart_read.o)
 .debug_frame   0x00000000000029a0       0x38 /home/nathan/Documents/Cours/EPFL_RTES_CS476/Code/mini_project_v2/sw/mini_project_v3_bsp//libucosii_bsp.a(altera_avalon_jtag_uart_write.o)
 .debug_frame   0x00000000000029d8       0x60 /home/nathan/Documents/Cours/EPFL_RTES_CS476/Code/mini_project_v2/sw/mini_project_v3_bsp//libucosii_bsp.a(altera_avalon_timer_sc.o)
 .debug_frame   0x0000000000002a38       0x34 /home/nathan/Documents/Cours/EPFL_RTES_CS476/Code/mini_project_v2/sw/mini_project_v3_bsp//libucosii_bsp.a(alt_alarm_start.o)
 .debug_frame   0x0000000000002a6c       0x34 /home/nathan/Documents/Cours/EPFL_RTES_CS476/Code/mini_project_v2/sw/mini_project_v3_bsp//libucosii_bsp.a(alt_dcache_flush_all.o)
 .debug_frame   0x0000000000002aa0       0x60 /home/nathan/Documents/Cours/EPFL_RTES_CS476/Code/mini_project_v2/sw/mini_project_v3_bsp//libucosii_bsp.a(alt_dev_llist_insert.o)
 .debug_frame   0x0000000000002b00       0x38 /home/nathan/Documents/Cours/EPFL_RTES_CS476/Code/mini_project_v2/sw/mini_project_v3_bsp//libucosii_bsp.a(alt_do_ctors.o)
 .debug_frame   0x0000000000002b38       0x38 /home/nathan/Documents/Cours/EPFL_RTES_CS476/Code/mini_project_v2/sw/mini_project_v3_bsp//libucosii_bsp.a(alt_do_dtors.o)
 .debug_frame   0x0000000000002b70       0x34 /home/nathan/Documents/Cours/EPFL_RTES_CS476/Code/mini_project_v2/sw/mini_project_v3_bsp//libucosii_bsp.a(alt_icache_flush_all.o)
 .debug_frame   0x0000000000002ba4       0xa4 /home/nathan/Documents/Cours/EPFL_RTES_CS476/Code/mini_project_v2/sw/mini_project_v3_bsp//libucosii_bsp.a(alt_iic.o)
 .debug_frame   0x0000000000002c48       0x38 /home/nathan/Documents/Cours/EPFL_RTES_CS476/Code/mini_project_v2/sw/mini_project_v3_bsp//libucosii_bsp.a(alt_iic_isr_register.o)
 .debug_frame   0x0000000000002c80       0x60 /home/nathan/Documents/Cours/EPFL_RTES_CS476/Code/mini_project_v2/sw/mini_project_v3_bsp//libucosii_bsp.a(alt_io_redirect.o)
 .debug_frame   0x0000000000002ce0       0x38 /home/nathan/Documents/Cours/EPFL_RTES_CS476/Code/mini_project_v2/sw/mini_project_v3_bsp//libucosii_bsp.a(alt_irq_handler.o)
 .debug_frame   0x0000000000002d18       0x84 /home/nathan/Documents/Cours/EPFL_RTES_CS476/Code/mini_project_v2/sw/mini_project_v3_bsp//libucosii_bsp.a(alt_open.o)
 .debug_frame   0x0000000000002d9c       0x5c /home/nathan/Documents/Cours/EPFL_RTES_CS476/Code/mini_project_v2/sw/mini_project_v3_bsp//libucosii_bsp.a(alt_tick.o)
 .debug_frame   0x0000000000002df8       0x34 /home/nathan/Documents/Cours/EPFL_RTES_CS476/Code/mini_project_v2/sw/mini_project_v3_bsp//libucosii_bsp.a(altera_nios2_gen2_irq.o)
 .debug_frame   0x0000000000002e2c      0x17c /home/nathan/Documents/Cours/EPFL_RTES_CS476/Code/mini_project_v2/sw/mini_project_v3_bsp//libucosii_bsp.a(os_cpu_c.o)
 .debug_frame   0x0000000000002fa8       0x38 /home/nathan/Documents/Cours/EPFL_RTES_CS476/Code/mini_project_v2/sw/mini_project_v3_bsp//libucosii_bsp.a(alt_find_dev.o)
 .debug_frame   0x0000000000002fe0       0x38 /home/nathan/Documents/Cours/EPFL_RTES_CS476/Code/mini_project_v2/sw/mini_project_v3_bsp//libucosii_bsp.a(alt_find_file.o)
 .debug_frame   0x0000000000003018       0x38 /home/nathan/Documents/Cours/EPFL_RTES_CS476/Code/mini_project_v2/sw/mini_project_v3_bsp//libucosii_bsp.a(alt_get_fd.o)
 .debug_frame   0x0000000000003050       0x5c /home/nathan/Documents/Cours/EPFL_RTES_CS476/Code/mini_project_v2/sw/mini_project_v3_bsp//libucosii_bsp.a(alt_instruction_exception_entry.o)
 .debug_frame   0x00000000000030ac       0x20 /home/nathan/Documents/Misc/quartus-free/pkg/quartus-free/opt/altera/18.1/nios2eds/bin/gnu/H-x86_64-pc-linux-gnu/bin/../lib/gcc/nios2-elf/5.3.0/../../../../../H-x86_64-pc-linux-gnu/nios2-elf/lib/libc.a(lib_a-atexit.o)
 .debug_frame   0x00000000000030cc       0x28 /home/nathan/Documents/Misc/quartus-free/pkg/quartus-free/opt/altera/18.1/nios2eds/bin/gnu/H-x86_64-pc-linux-gnu/bin/../lib/gcc/nios2-elf/5.3.0/../../../../../H-x86_64-pc-linux-gnu/nios2-elf/lib/libc.a(lib_a-exit.o)
 .debug_frame   0x00000000000030f4       0x20 /home/nathan/Documents/Misc/quartus-free/pkg/quartus-free/opt/altera/18.1/nios2eds/bin/gnu/H-x86_64-pc-linux-gnu/bin/../lib/gcc/nios2-elf/5.3.0/../../../../../H-x86_64-pc-linux-gnu/nios2-elf/lib/libc.a(lib_a-memcmp.o)
 .debug_frame   0x0000000000003114       0x38 /home/nathan/Documents/Misc/quartus-free/pkg/quartus-free/opt/altera/18.1/nios2eds/bin/gnu/H-x86_64-pc-linux-gnu/bin/../lib/gcc/nios2-elf/5.3.0/../../../../../H-x86_64-pc-linux-gnu/nios2-elf/lib/libc.a(lib_a-__atexit.o)
 .debug_frame   0x000000000000314c       0x54 /home/nathan/Documents/Misc/quartus-free/pkg/quartus-free/opt/altera/18.1/nios2eds/bin/gnu/H-x86_64-pc-linux-gnu/bin/../lib/gcc/nios2-elf/5.3.0/../../../../../H-x86_64-pc-linux-gnu/nios2-elf/lib/libc.a(lib_a-__call_atexit.o)
 .debug_frame   0x00000000000031a0       0x2c /home/nathan/Documents/Cours/EPFL_RTES_CS476/Code/mini_project_v2/sw/mini_project_v3_bsp//libucosii_bsp.a(alt_exit.o)

.debug_str      0x0000000000000000     0x49e8
 *(.debug_str)
 .debug_str     0x0000000000000000      0x2c8 obj/default/mini_project_with_fake_camera.o
                                        0x343 (size before relaxing)
 .debug_str     0x00000000000002c8      0x16e /home/nathan/Documents/Misc/quartus-free/pkg/quartus-free/opt/altera/18.1/nios2eds/bin/gnu/H-x86_64-pc-linux-gnu/bin/../lib/gcc/nios2-elf/5.3.0/libgcc.a(lib2-divmod.o)
                                        0x1b9 (size before relaxing)
 .debug_str     0x0000000000000436      0x482 /home/nathan/Documents/Misc/quartus-free/pkg/quartus-free/opt/altera/18.1/nios2eds/bin/gnu/H-x86_64-pc-linux-gnu/bin/../lib/gcc/nios2-elf/5.3.0/../../../../../H-x86_64-pc-linux-gnu/nios2-elf/lib/libc.a(lib_a-malloc.o)
                                        0x5b0 (size before relaxing)
 .debug_str     0x00000000000008b8      0x223 /home/nathan/Documents/Misc/quartus-free/pkg/quartus-free/opt/altera/18.1/nios2eds/bin/gnu/H-x86_64-pc-linux-gnu/bin/../lib/gcc/nios2-elf/5.3.0/../../../../../H-x86_64-pc-linux-gnu/nios2-elf/lib/libc.a(lib_a-mallocr.o)
                                        0x7a1 (size before relaxing)
 .debug_str     0x0000000000000adb      0x113 /home/nathan/Documents/Misc/quartus-free/pkg/quartus-free/opt/altera/18.1/nios2eds/bin/gnu/H-x86_64-pc-linux-gnu/bin/../lib/gcc/nios2-elf/5.3.0/../../../../../H-x86_64-pc-linux-gnu/nios2-elf/lib/libc.a(lib_a-printf.o)
                                        0x5e2 (size before relaxing)
 .debug_str     0x0000000000000bee       0xac /home/nathan/Documents/Misc/quartus-free/pkg/quartus-free/opt/altera/18.1/nios2eds/bin/gnu/H-x86_64-pc-linux-gnu/bin/../lib/gcc/nios2-elf/5.3.0/../../../../../H-x86_64-pc-linux-gnu/nios2-elf/lib/libc.a(lib_a-puts.o)
                                        0x603 (size before relaxing)
 .debug_str     0x0000000000000c9a       0xd0 /home/nathan/Documents/Misc/quartus-free/pkg/quartus-free/opt/altera/18.1/nios2eds/bin/gnu/H-x86_64-pc-linux-gnu/bin/../lib/gcc/nios2-elf/5.3.0/../../../../../H-x86_64-pc-linux-gnu/nios2-elf/lib/libc.a(lib_a-sbrkr.o)
                                        0x592 (size before relaxing)
 .debug_str     0x0000000000000d6a       0xcc /home/nathan/Documents/Misc/quartus-free/pkg/quartus-free/opt/altera/18.1/nios2eds/bin/gnu/H-x86_64-pc-linux-gnu/bin/../lib/gcc/nios2-elf/5.3.0/../../../../../H-x86_64-pc-linux-gnu/nios2-elf/lib/libc.a(lib_a-strlen.o)
                                        0x1de (size before relaxing)
 .debug_str     0x0000000000000e36      0x216 /home/nathan/Documents/Misc/quartus-free/pkg/quartus-free/opt/altera/18.1/nios2eds/bin/gnu/H-x86_64-pc-linux-gnu/bin/../lib/gcc/nios2-elf/5.3.0/../../../../../H-x86_64-pc-linux-gnu/nios2-elf/lib/libc.a(lib_a-vfprintf.o)
                                        0x824 (size before relaxing)
 .debug_str     0x000000000000104c       0x46 /home/nathan/Documents/Misc/quartus-free/pkg/quartus-free/opt/altera/18.1/nios2eds/bin/gnu/H-x86_64-pc-linux-gnu/bin/../lib/gcc/nios2-elf/5.3.0/../../../../../H-x86_64-pc-linux-gnu/nios2-elf/lib/libc.a(lib_a-wsetup.o)
                                        0x5bb (size before relaxing)
 .debug_str     0x0000000000001092      0x15d /home/nathan/Documents/Misc/quartus-free/pkg/quartus-free/opt/altera/18.1/nios2eds/bin/gnu/H-x86_64-pc-linux-gnu/bin/../lib/gcc/nios2-elf/5.3.0/../../../../../H-x86_64-pc-linux-gnu/nios2-elf/lib/libc.a(lib_a-dtoa.o)
                                        0x6db (size before relaxing)
 .debug_str     0x00000000000011ef       0x7c /home/nathan/Documents/Misc/quartus-free/pkg/quartus-free/opt/altera/18.1/nios2eds/bin/gnu/H-x86_64-pc-linux-gnu/bin/../lib/gcc/nios2-elf/5.3.0/../../../../../H-x86_64-pc-linux-gnu/nios2-elf/lib/libc.a(lib_a-fflush.o)
                                        0x5fc (size before relaxing)
 .debug_str     0x000000000000126b      0x119 /home/nathan/Documents/Misc/quartus-free/pkg/quartus-free/opt/altera/18.1/nios2eds/bin/gnu/H-x86_64-pc-linux-gnu/bin/../lib/gcc/nios2-elf/5.3.0/../../../../../H-x86_64-pc-linux-gnu/nios2-elf/lib/libc.a(lib_a-findfp.o)
                                        0x6b2 (size before relaxing)
 .debug_str     0x0000000000001384       0x34 /home/nathan/Documents/Misc/quartus-free/pkg/quartus-free/opt/altera/18.1/nios2eds/bin/gnu/H-x86_64-pc-linux-gnu/bin/../lib/gcc/nios2-elf/5.3.0/../../../../../H-x86_64-pc-linux-gnu/nios2-elf/lib/libc.a(lib_a-freer.o)
                                        0x6eb (size before relaxing)
 .debug_str     0x00000000000013b8       0x6b /home/nathan/Documents/Misc/quartus-free/pkg/quartus-free/opt/altera/18.1/nios2eds/bin/gnu/H-x86_64-pc-linux-gnu/bin/../lib/gcc/nios2-elf/5.3.0/../../../../../H-x86_64-pc-linux-gnu/nios2-elf/lib/libc.a(lib_a-fvwrite.o)
                                        0x62e (size before relaxing)
 .debug_str     0x0000000000001423       0x47 /home/nathan/Documents/Misc/quartus-free/pkg/quartus-free/opt/altera/18.1/nios2eds/bin/gnu/H-x86_64-pc-linux-gnu/bin/../lib/gcc/nios2-elf/5.3.0/../../../../../H-x86_64-pc-linux-gnu/nios2-elf/lib/libc.a(lib_a-fwalk.o)
                                        0x5a1 (size before relaxing)
 .debug_str     0x000000000000146a       0x45 /home/nathan/Documents/Misc/quartus-free/pkg/quartus-free/opt/altera/18.1/nios2eds/bin/gnu/H-x86_64-pc-linux-gnu/bin/../lib/gcc/nios2-elf/5.3.0/../../../../../H-x86_64-pc-linux-gnu/nios2-elf/lib/libc.a(lib_a-impure.o)
                                        0x59c (size before relaxing)
 .debug_str     0x00000000000014af       0x3c /home/nathan/Documents/Misc/quartus-free/pkg/quartus-free/opt/altera/18.1/nios2eds/bin/gnu/H-x86_64-pc-linux-gnu/bin/../lib/gcc/nios2-elf/5.3.0/../../../../../H-x86_64-pc-linux-gnu/nios2-elf/lib/libc.a(lib_a-int_errno.o)
                                        0x1c4 (size before relaxing)
 .debug_str     0x00000000000014eb      0x293 /home/nathan/Documents/Misc/quartus-free/pkg/quartus-free/opt/altera/18.1/nios2eds/bin/gnu/H-x86_64-pc-linux-gnu/bin/../lib/gcc/nios2-elf/5.3.0/../../../../../H-x86_64-pc-linux-gnu/nios2-elf/lib/libc.a(lib_a-locale.o)
                                        0x7f9 (size before relaxing)
 .debug_str     0x000000000000177e      0x121 /home/nathan/Documents/Misc/quartus-free/pkg/quartus-free/opt/altera/18.1/nios2eds/bin/gnu/H-x86_64-pc-linux-gnu/bin/../lib/gcc/nios2-elf/5.3.0/../../../../../H-x86_64-pc-linux-gnu/nios2-elf/lib/libc.a(lib_a-makebuf.o)
                                        0x69e (size before relaxing)
 .debug_str     0x000000000000189f       0x48 /home/nathan/Documents/Misc/quartus-free/pkg/quartus-free/opt/altera/18.1/nios2eds/bin/gnu/H-x86_64-pc-linux-gnu/bin/../lib/gcc/nios2-elf/5.3.0/../../../../../H-x86_64-pc-linux-gnu/nios2-elf/lib/libc.a(lib_a-memchr.o)
                                        0x1e5 (size before relaxing)
 .debug_str     0x00000000000018e7       0x61 /home/nathan/Documents/Misc/quartus-free/pkg/quartus-free/opt/altera/18.1/nios2eds/bin/gnu/H-x86_64-pc-linux-gnu/bin/../lib/gcc/nios2-elf/5.3.0/../../../../../H-x86_64-pc-linux-gnu/nios2-elf/lib/libc.a(lib_a-memcpy.o)
                                        0x1f2 (size before relaxing)
 .debug_str     0x0000000000001948       0x44 /home/nathan/Documents/Misc/quartus-free/pkg/quartus-free/opt/altera/18.1/nios2eds/bin/gnu/H-x86_64-pc-linux-gnu/bin/../lib/gcc/nios2-elf/5.3.0/../../../../../H-x86_64-pc-linux-gnu/nios2-elf/lib/libc.a(lib_a-memmove.o)
                                        0x1fe (size before relaxing)
 .debug_str     0x000000000000198c       0x41 /home/nathan/Documents/Misc/quartus-free/pkg/quartus-free/opt/altera/18.1/nios2eds/bin/gnu/H-x86_64-pc-linux-gnu/bin/../lib/gcc/nios2-elf/5.3.0/../../../../../H-x86_64-pc-linux-gnu/nios2-elf/lib/libc.a(lib_a-memset.o)
                                        0x1df (size before relaxing)
 .debug_str     0x00000000000019cd       0xa4 /home/nathan/Documents/Misc/quartus-free/pkg/quartus-free/opt/altera/18.1/nios2eds/bin/gnu/H-x86_64-pc-linux-gnu/bin/../lib/gcc/nios2-elf/5.3.0/../../../../../H-x86_64-pc-linux-gnu/nios2-elf/lib/libc.a(lib_a-mprec.o)
                                        0x695 (size before relaxing)
 .debug_str     0x0000000000001a71       0x49 /home/nathan/Documents/Misc/quartus-free/pkg/quartus-free/opt/altera/18.1/nios2eds/bin/gnu/H-x86_64-pc-linux-gnu/bin/../lib/gcc/nios2-elf/5.3.0/../../../../../H-x86_64-pc-linux-gnu/nios2-elf/lib/libc.a(lib_a-reallocr.o)
                                        0x67d (size before relaxing)
 .debug_str     0x0000000000001aba       0xc5 /home/nathan/Documents/Misc/quartus-free/pkg/quartus-free/opt/altera/18.1/nios2eds/bin/gnu/H-x86_64-pc-linux-gnu/bin/../lib/gcc/nios2-elf/5.3.0/../../../../../H-x86_64-pc-linux-gnu/nios2-elf/lib/libc.a(lib_a-s_fpclassify.o)
                                        0x1e9 (size before relaxing)
 .debug_str     0x0000000000001b7f       0x98 /home/nathan/Documents/Misc/quartus-free/pkg/quartus-free/opt/altera/18.1/nios2eds/bin/gnu/H-x86_64-pc-linux-gnu/bin/../lib/gcc/nios2-elf/5.3.0/../../../../../H-x86_64-pc-linux-gnu/nios2-elf/lib/libc.a(lib_a-stdio.o)
                                        0x5f0 (size before relaxing)
 .debug_str     0x0000000000001c17       0x3a /home/nathan/Documents/Misc/quartus-free/pkg/quartus-free/opt/altera/18.1/nios2eds/bin/gnu/H-x86_64-pc-linux-gnu/bin/../lib/gcc/nios2-elf/5.3.0/../../../../../H-x86_64-pc-linux-gnu/nios2-elf/lib/libc.a(lib_a-strcmp.o)
                                        0x1c4 (size before relaxing)
 .debug_str     0x0000000000001c51       0x3f /home/nathan/Documents/Misc/quartus-free/pkg/quartus-free/opt/altera/18.1/nios2eds/bin/gnu/H-x86_64-pc-linux-gnu/bin/../lib/gcc/nios2-elf/5.3.0/../../../../../H-x86_64-pc-linux-gnu/nios2-elf/lib/libc.a(lib_a-vfiprintf.o)
                                        0x778 (size before relaxing)
 .debug_str     0x0000000000001c90       0x39 /home/nathan/Documents/Misc/quartus-free/pkg/quartus-free/opt/altera/18.1/nios2eds/bin/gnu/H-x86_64-pc-linux-gnu/bin/../lib/gcc/nios2-elf/5.3.0/../../../../../H-x86_64-pc-linux-gnu/nios2-elf/lib/libc.a(lib_a-writer.o)
                                        0x596 (size before relaxing)
 .debug_str     0x0000000000001cc9       0x39 /home/nathan/Documents/Misc/quartus-free/pkg/quartus-free/opt/altera/18.1/nios2eds/bin/gnu/H-x86_64-pc-linux-gnu/bin/../lib/gcc/nios2-elf/5.3.0/../../../../../H-x86_64-pc-linux-gnu/nios2-elf/lib/libc.a(closer.o)
                                        0x586 (size before relaxing)
 .debug_str     0x0000000000001d02        0xf /home/nathan/Documents/Misc/quartus-free/pkg/quartus-free/opt/altera/18.1/nios2eds/bin/gnu/H-x86_64-pc-linux-gnu/bin/../lib/gcc/nios2-elf/5.3.0/../../../../../H-x86_64-pc-linux-gnu/nios2-elf/lib/libc.a(lib_a-callocr.o)
                                        0x5d5 (size before relaxing)
 .debug_str     0x0000000000001d11       0x4a /home/nathan/Documents/Misc/quartus-free/pkg/quartus-free/opt/altera/18.1/nios2eds/bin/gnu/H-x86_64-pc-linux-gnu/bin/../lib/gcc/nios2-elf/5.3.0/../../../../../H-x86_64-pc-linux-gnu/nios2-elf/lib/libc.a(lib_a-fclose.o)
                                        0x5e9 (size before relaxing)
 .debug_str     0x0000000000001d5b       0x57 /home/nathan/Documents/Misc/quartus-free/pkg/quartus-free/opt/altera/18.1/nios2eds/bin/gnu/H-x86_64-pc-linux-gnu/bin/../lib/gcc/nios2-elf/5.3.0/../../../../../H-x86_64-pc-linux-gnu/nios2-elf/lib/libc.a(lib_a-fputwc.o)
                                        0x5ed (size before relaxing)
 .debug_str     0x0000000000001db2       0x45 /home/nathan/Documents/Misc/quartus-free/pkg/quartus-free/opt/altera/18.1/nios2eds/bin/gnu/H-x86_64-pc-linux-gnu/bin/../lib/gcc/nios2-elf/5.3.0/../../../../../H-x86_64-pc-linux-gnu/nios2-elf/lib/libc.a(lib_a-fstatr.o)
                                        0x672 (size before relaxing)
 .debug_str     0x0000000000001df7       0x41 /home/nathan/Documents/Misc/quartus-free/pkg/quartus-free/opt/altera/18.1/nios2eds/bin/gnu/H-x86_64-pc-linux-gnu/bin/../lib/gcc/nios2-elf/5.3.0/../../../../../H-x86_64-pc-linux-gnu/nios2-elf/lib/libc.a(lib_a-isattyr.o)
                                        0x589 (size before relaxing)
 .debug_str     0x0000000000001e38       0x3f /home/nathan/Documents/Misc/quartus-free/pkg/quartus-free/opt/altera/18.1/nios2eds/bin/gnu/H-x86_64-pc-linux-gnu/bin/../lib/gcc/nios2-elf/5.3.0/../../../../../H-x86_64-pc-linux-gnu/nios2-elf/lib/libc.a(lib_a-lseekr.o)
                                        0x58d (size before relaxing)
 .debug_str     0x0000000000001e77       0x38 /home/nathan/Documents/Misc/quartus-free/pkg/quartus-free/opt/altera/18.1/nios2eds/bin/gnu/H-x86_64-pc-linux-gnu/bin/../lib/gcc/nios2-elf/5.3.0/../../../../../H-x86_64-pc-linux-gnu/nios2-elf/lib/libc.a(lib_a-readr.o)
                                        0x593 (size before relaxing)
 .debug_str     0x0000000000001eaf       0x3f /home/nathan/Documents/Misc/quartus-free/pkg/quartus-free/opt/altera/18.1/nios2eds/bin/gnu/H-x86_64-pc-linux-gnu/bin/../lib/gcc/nios2-elf/5.3.0/../../../../../H-x86_64-pc-linux-gnu/nios2-elf/lib/libc.a(lib_a-wbuf.o)
                                        0x5c0 (size before relaxing)
 .debug_str     0x0000000000001eee       0x53 /home/nathan/Documents/Misc/quartus-free/pkg/quartus-free/opt/altera/18.1/nios2eds/bin/gnu/H-x86_64-pc-linux-gnu/bin/../lib/gcc/nios2-elf/5.3.0/../../../../../H-x86_64-pc-linux-gnu/nios2-elf/lib/libc.a(lib_a-wcrtomb.o)
                                        0x5d3 (size before relaxing)
 .debug_str     0x0000000000001f41       0x5c /home/nathan/Documents/Misc/quartus-free/pkg/quartus-free/opt/altera/18.1/nios2eds/bin/gnu/H-x86_64-pc-linux-gnu/bin/../lib/gcc/nios2-elf/5.3.0/../../../../../H-x86_64-pc-linux-gnu/nios2-elf/lib/libc.a(lib_a-wctomb_r.o)
                                        0x5dc (size before relaxing)
 .debug_str     0x0000000000001f9d      0x16c /home/nathan/Documents/Misc/quartus-free/pkg/quartus-free/opt/altera/18.1/nios2eds/bin/gnu/H-x86_64-pc-linux-gnu/bin/../lib/gcc/nios2-elf/5.3.0/libgcc.a(_udivdi3.o)
                                        0x283 (size before relaxing)
 .debug_str     0x0000000000002109        0xa /home/nathan/Documents/Misc/quartus-free/pkg/quartus-free/opt/altera/18.1/nios2eds/bin/gnu/H-x86_64-pc-linux-gnu/bin/../lib/gcc/nios2-elf/5.3.0/libgcc.a(_umoddi3.o)
                                        0x283 (size before relaxing)
 .debug_str     0x0000000000002113      0x116 /home/nathan/Documents/Misc/quartus-free/pkg/quartus-free/opt/altera/18.1/nios2eds/bin/gnu/H-x86_64-pc-linux-gnu/bin/../lib/gcc/nios2-elf/5.3.0/libgcc.a(adddf3.o)
                                        0x290 (size before relaxing)
 .debug_str     0x0000000000002229      0x123 /home/nathan/Documents/Misc/quartus-free/pkg/quartus-free/opt/altera/18.1/nios2eds/bin/gnu/H-x86_64-pc-linux-gnu/bin/../lib/gcc/nios2-elf/5.3.0/libgcc.a(divdf3.o)
                                        0x348 (size before relaxing)
 .debug_str     0x000000000000234c       0x34 /home/nathan/Documents/Misc/quartus-free/pkg/quartus-free/opt/altera/18.1/nios2eds/bin/gnu/H-x86_64-pc-linux-gnu/bin/../lib/gcc/nios2-elf/5.3.0/libgcc.a(eqdf2.o)
                                        0x1f6 (size before relaxing)
 .debug_str     0x0000000000002380       0x58 /home/nathan/Documents/Misc/quartus-free/pkg/quartus-free/opt/altera/18.1/nios2eds/bin/gnu/H-x86_64-pc-linux-gnu/bin/../lib/gcc/nios2-elf/5.3.0/libgcc.a(gedf2.o)
                                        0x21a (size before relaxing)
 .debug_str     0x00000000000023d8       0x34 /home/nathan/Documents/Misc/quartus-free/pkg/quartus-free/opt/altera/18.1/nios2eds/bin/gnu/H-x86_64-pc-linux-gnu/bin/../lib/gcc/nios2-elf/5.3.0/libgcc.a(ledf2.o)
                                        0x21a (size before relaxing)
 .debug_str     0x000000000000240c      0x15b /home/nathan/Documents/Misc/quartus-free/pkg/quartus-free/opt/altera/18.1/nios2eds/bin/gnu/H-x86_64-pc-linux-gnu/bin/../lib/gcc/nios2-elf/5.3.0/libgcc.a(muldf3.o)
                                        0x3a9 (size before relaxing)
 .debug_str     0x0000000000002567       0x36 /home/nathan/Documents/Misc/quartus-free/pkg/quartus-free/opt/altera/18.1/nios2eds/bin/gnu/H-x86_64-pc-linux-gnu/bin/../lib/gcc/nios2-elf/5.3.0/libgcc.a(subdf3.o)
                                        0x290 (size before relaxing)
 .debug_str     0x000000000000259d       0x4b /home/nathan/Documents/Misc/quartus-free/pkg/quartus-free/opt/altera/18.1/nios2eds/bin/gnu/H-x86_64-pc-linux-gnu/bin/../lib/gcc/nios2-elf/5.3.0/libgcc.a(fixdfsi.o)
                                        0x212 (size before relaxing)
 .debug_str     0x00000000000025e8       0x69 /home/nathan/Documents/Misc/quartus-free/pkg/quartus-free/opt/altera/18.1/nios2eds/bin/gnu/H-x86_64-pc-linux-gnu/bin/../lib/gcc/nios2-elf/5.3.0/libgcc.a(floatsidf.o)
                                        0x229 (size before relaxing)
 .debug_str     0x0000000000002651       0x40 /home/nathan/Documents/Misc/quartus-free/pkg/quartus-free/opt/altera/18.1/nios2eds/bin/gnu/H-x86_64-pc-linux-gnu/bin/../lib/gcc/nios2-elf/5.3.0/libgcc.a(floatunsidf.o)
                                        0x226 (size before relaxing)
 .debug_str     0x0000000000002691      0x1ca /home/nathan/Documents/Misc/quartus-free/pkg/quartus-free/opt/altera/18.1/nios2eds/bin/gnu/H-x86_64-pc-linux-gnu/bin/../lib/gcc/nios2-elf/5.3.0/libgcc.a(_clz.o)
 .debug_str     0x0000000000002691        0x9 /home/nathan/Documents/Misc/quartus-free/pkg/quartus-free/opt/altera/18.1/nios2eds/bin/gnu/H-x86_64-pc-linux-gnu/bin/../lib/gcc/nios2-elf/5.3.0/libgcc.a(_clzsi2.o)
                                        0x1e7 (size before relaxing)
 .debug_str     0x000000000000269a       0xfe /home/nathan/Documents/Cours/EPFL_RTES_CS476/Code/mini_project_v2/sw/mini_project_v3_bsp//libucosii_bsp.a(alt_close.o)
                                        0x257 (size before relaxing)
 .debug_str     0x0000000000002798       0x61 /home/nathan/Documents/Cours/EPFL_RTES_CS476/Code/mini_project_v2/sw/mini_project_v3_bsp//libucosii_bsp.a(alt_dev.o)
                                        0x3c5 (size before relaxing)
 .debug_str     0x00000000000027f9       0x14 /home/nathan/Documents/Cours/EPFL_RTES_CS476/Code/mini_project_v2/sw/mini_project_v3_bsp//libucosii_bsp.a(alt_errno.o)
                                        0x161 (size before relaxing)
 .debug_str     0x000000000000280d       0x14 /home/nathan/Documents/Cours/EPFL_RTES_CS476/Code/mini_project_v2/sw/mini_project_v3_bsp//libucosii_bsp.a(alt_fstat.o)
                                        0x338 (size before relaxing)
 .debug_str     0x0000000000002821       0x15 /home/nathan/Documents/Cours/EPFL_RTES_CS476/Code/mini_project_v2/sw/mini_project_v3_bsp//libucosii_bsp.a(alt_isatty.o)
                                        0x340 (size before relaxing)
 .debug_str     0x0000000000002836       0xe9 /home/nathan/Documents/Cours/EPFL_RTES_CS476/Code/mini_project_v2/sw/mini_project_v3_bsp//libucosii_bsp.a(alt_load.o)
                                        0x22e (size before relaxing)
 .debug_str     0x000000000000291f       0x14 /home/nathan/Documents/Cours/EPFL_RTES_CS476/Code/mini_project_v2/sw/mini_project_v3_bsp//libucosii_bsp.a(alt_lseek.o)
                                        0x25d (size before relaxing)
 .debug_str     0x0000000000002933       0x5d /home/nathan/Documents/Cours/EPFL_RTES_CS476/Code/mini_project_v2/sw/mini_project_v3_bsp//libucosii_bsp.a(alt_main.o)
                                        0x27c (size before relaxing)
 .debug_str     0x0000000000002990       0x13 /home/nathan/Documents/Cours/EPFL_RTES_CS476/Code/mini_project_v2/sw/mini_project_v3_bsp//libucosii_bsp.a(alt_read.o)
                                        0x343 (size before relaxing)
 .debug_str     0x00000000000029a3       0x28 /home/nathan/Documents/Cours/EPFL_RTES_CS476/Code/mini_project_v2/sw/mini_project_v3_bsp//libucosii_bsp.a(alt_release_fd.o)
                                        0x241 (size before relaxing)
 .debug_str     0x00000000000029cb       0x98 /home/nathan/Documents/Cours/EPFL_RTES_CS476/Code/mini_project_v2/sw/mini_project_v3_bsp//libucosii_bsp.a(alt_sbrk.o)
                                        0x1f0 (size before relaxing)
 .debug_str     0x0000000000002a63       0x14 /home/nathan/Documents/Cours/EPFL_RTES_CS476/Code/mini_project_v2/sw/mini_project_v3_bsp//libucosii_bsp.a(alt_write.o)
                                        0x344 (size before relaxing)
 .debug_str     0x0000000000002a77      0x246 /home/nathan/Documents/Cours/EPFL_RTES_CS476/Code/mini_project_v2/sw/mini_project_v3_bsp//libucosii_bsp.a(alt_env_lock.o)
                                        0x7e4 (size before relaxing)
 .debug_str     0x0000000000002cbd       0x36 /home/nathan/Documents/Cours/EPFL_RTES_CS476/Code/mini_project_v2/sw/mini_project_v3_bsp//libucosii_bsp.a(alt_malloc_lock.o)
                                        0x846 (size before relaxing)
 .debug_str     0x0000000000002cf3      0x536 /home/nathan/Documents/Cours/EPFL_RTES_CS476/Code/mini_project_v2/sw/mini_project_v3_bsp//libucosii_bsp.a(os_core.o)
                                        0x972 (size before relaxing)
 .debug_str     0x0000000000003229      0x2e5 /home/nathan/Documents/Cours/EPFL_RTES_CS476/Code/mini_project_v2/sw/mini_project_v3_bsp//libucosii_bsp.a(os_dbg.o)
                                        0x8e1 (size before relaxing)
 .debug_str     0x000000000000350e      0x136 /home/nathan/Documents/Cours/EPFL_RTES_CS476/Code/mini_project_v2/sw/mini_project_v3_bsp//libucosii_bsp.a(os_flag.o)
                                        0x60e (size before relaxing)
 .debug_str     0x0000000000003644       0xcf /home/nathan/Documents/Cours/EPFL_RTES_CS476/Code/mini_project_v2/sw/mini_project_v3_bsp//libucosii_bsp.a(os_mem.o)
                                        0x317 (size before relaxing)
 .debug_str     0x0000000000003713       0xc0 /home/nathan/Documents/Cours/EPFL_RTES_CS476/Code/mini_project_v2/sw/mini_project_v3_bsp//libucosii_bsp.a(os_q.o)
                                        0x591 (size before relaxing)
 .debug_str     0x00000000000037d3       0x77 /home/nathan/Documents/Cours/EPFL_RTES_CS476/Code/mini_project_v2/sw/mini_project_v3_bsp//libucosii_bsp.a(os_sem.o)
                                        0x51a (size before relaxing)
 .debug_str     0x000000000000384a      0x118 /home/nathan/Documents/Cours/EPFL_RTES_CS476/Code/mini_project_v2/sw/mini_project_v3_bsp//libucosii_bsp.a(os_task.o)
                                        0x61d (size before relaxing)
 .debug_str     0x0000000000003962       0x6d /home/nathan/Documents/Cours/EPFL_RTES_CS476/Code/mini_project_v2/sw/mini_project_v3_bsp//libucosii_bsp.a(os_time.o)
                                        0x4bd (size before relaxing)
 .debug_str     0x00000000000039cf      0x187 /home/nathan/Documents/Cours/EPFL_RTES_CS476/Code/mini_project_v2/sw/mini_project_v3_bsp//libucosii_bsp.a(alt_sys_init.o)
                                        0x49c (size before relaxing)
 .debug_str     0x0000000000003b56       0xac /home/nathan/Documents/Cours/EPFL_RTES_CS476/Code/mini_project_v2/sw/mini_project_v3_bsp//libucosii_bsp.a(altera_avalon_jtag_uart_fd.o)
                                        0x4b0 (size before relaxing)
 .debug_str     0x0000000000003c02       0xf6 /home/nathan/Documents/Cours/EPFL_RTES_CS476/Code/mini_project_v2/sw/mini_project_v3_bsp//libucosii_bsp.a(altera_avalon_jtag_uart_init.o)
                                        0x477 (size before relaxing)
 .debug_str     0x0000000000003cf8       0x4a /home/nathan/Documents/Cours/EPFL_RTES_CS476/Code/mini_project_v2/sw/mini_project_v3_bsp//libucosii_bsp.a(altera_avalon_jtag_uart_ioctl.o)
                                        0x39f (size before relaxing)
 .debug_str     0x0000000000003d42       0x63 /home/nathan/Documents/Cours/EPFL_RTES_CS476/Code/mini_project_v2/sw/mini_project_v3_bsp//libucosii_bsp.a(altera_avalon_jtag_uart_read.o)
                                        0x412 (size before relaxing)
 .debug_str     0x0000000000003da5       0x4a /home/nathan/Documents/Cours/EPFL_RTES_CS476/Code/mini_project_v2/sw/mini_project_v3_bsp//libucosii_bsp.a(altera_avalon_jtag_uart_write.o)
                                        0x413 (size before relaxing)
 .debug_str     0x0000000000003def       0x66 /home/nathan/Documents/Cours/EPFL_RTES_CS476/Code/mini_project_v2/sw/mini_project_v3_bsp//libucosii_bsp.a(altera_avalon_timer_sc.o)
                                        0x267 (size before relaxing)
 .debug_str     0x0000000000003e55       0x59 /home/nathan/Documents/Cours/EPFL_RTES_CS476/Code/mini_project_v2/sw/mini_project_v3_bsp//libucosii_bsp.a(alt_alarm_start.o)
                                        0x29a (size before relaxing)
 .debug_str     0x0000000000003eae       0x34 /home/nathan/Documents/Cours/EPFL_RTES_CS476/Code/mini_project_v2/sw/mini_project_v3_bsp//libucosii_bsp.a(alt_dcache_flush_all.o)
                                        0x171 (size before relaxing)
 .debug_str     0x0000000000003ee2       0x34 /home/nathan/Documents/Cours/EPFL_RTES_CS476/Code/mini_project_v2/sw/mini_project_v3_bsp//libucosii_bsp.a(alt_dev_llist_insert.o)
                                        0x1e8 (size before relaxing)
 .debug_str     0x0000000000003f16       0x48 /home/nathan/Documents/Cours/EPFL_RTES_CS476/Code/mini_project_v2/sw/mini_project_v3_bsp//libucosii_bsp.a(alt_do_ctors.o)
                                         0xec (size before relaxing)
 .debug_str     0x0000000000003f5e       0x4c /home/nathan/Documents/Cours/EPFL_RTES_CS476/Code/mini_project_v2/sw/mini_project_v3_bsp//libucosii_bsp.a(alt_do_dtors.o)
                                         0xeb (size before relaxing)
 .debug_str     0x0000000000003faa       0x34 /home/nathan/Documents/Cours/EPFL_RTES_CS476/Code/mini_project_v2/sw/mini_project_v3_bsp//libucosii_bsp.a(alt_icache_flush_all.o)
                                        0x171 (size before relaxing)
 .debug_str     0x0000000000003fde       0xc4 /home/nathan/Documents/Cours/EPFL_RTES_CS476/Code/mini_project_v2/sw/mini_project_v3_bsp//libucosii_bsp.a(alt_iic.o)
                                        0x25a (size before relaxing)
 .debug_str     0x00000000000040a2       0x4c /home/nathan/Documents/Cours/EPFL_RTES_CS476/Code/mini_project_v2/sw/mini_project_v3_bsp//libucosii_bsp.a(alt_iic_isr_register.o)
                                        0x204 (size before relaxing)
 .debug_str     0x00000000000040ee       0x56 /home/nathan/Documents/Cours/EPFL_RTES_CS476/Code/mini_project_v2/sw/mini_project_v3_bsp//libucosii_bsp.a(alt_io_redirect.o)
                                        0x362 (size before relaxing)
 .debug_str     0x0000000000004144       0x3a /home/nathan/Documents/Cours/EPFL_RTES_CS476/Code/mini_project_v2/sw/mini_project_v3_bsp//libucosii_bsp.a(alt_irq_handler.o)
                                        0x1db (size before relaxing)
 .debug_str     0x000000000000417e       0x17 /home/nathan/Documents/Cours/EPFL_RTES_CS476/Code/mini_project_v2/sw/mini_project_v3_bsp//libucosii_bsp.a(alt_irq_vars.o)
                                        0x156 (size before relaxing)
 .debug_str     0x0000000000004195       0x29 /home/nathan/Documents/Cours/EPFL_RTES_CS476/Code/mini_project_v2/sw/mini_project_v3_bsp//libucosii_bsp.a(alt_open.o)
                                        0x28f (size before relaxing)
 .debug_str     0x00000000000041be       0x4a /home/nathan/Documents/Cours/EPFL_RTES_CS476/Code/mini_project_v2/sw/mini_project_v3_bsp//libucosii_bsp.a(alt_tick.o)
                                        0x27b (size before relaxing)
 .debug_str     0x0000000000004208       0x3b /home/nathan/Documents/Cours/EPFL_RTES_CS476/Code/mini_project_v2/sw/mini_project_v3_bsp//libucosii_bsp.a(altera_nios2_gen2_irq.o)
                                        0x178 (size before relaxing)
 .debug_str     0x0000000000004243       0xd5 /home/nathan/Documents/Cours/EPFL_RTES_CS476/Code/mini_project_v2/sw/mini_project_v3_bsp//libucosii_bsp.a(os_cpu_c.o)
                                        0x859 (size before relaxing)
 .debug_str     0x0000000000004318       0x24 /home/nathan/Documents/Cours/EPFL_RTES_CS476/Code/mini_project_v2/sw/mini_project_v3_bsp//libucosii_bsp.a(alt_find_dev.o)
                                        0x238 (size before relaxing)
 .debug_str     0x000000000000433c       0x26 /home/nathan/Documents/Cours/EPFL_RTES_CS476/Code/mini_project_v2/sw/mini_project_v3_bsp//libucosii_bsp.a(alt_find_file.o)
                                        0x246 (size before relaxing)
 .debug_str     0x0000000000004362       0x30 /home/nathan/Documents/Cours/EPFL_RTES_CS476/Code/mini_project_v2/sw/mini_project_v3_bsp//libucosii_bsp.a(alt_get_fd.o)
                                        0x2e4 (size before relaxing)
 .debug_str     0x0000000000004392      0x48b /home/nathan/Documents/Cours/EPFL_RTES_CS476/Code/mini_project_v2/sw/mini_project_v3_bsp//libucosii_bsp.a(alt_instruction_exception_entry.o)
                                        0x5bc (size before relaxing)
 .debug_str     0x000000000000481d       0x7e /home/nathan/Documents/Misc/quartus-free/pkg/quartus-free/opt/altera/18.1/nios2eds/bin/gnu/H-x86_64-pc-linux-gnu/bin/../lib/gcc/nios2-elf/5.3.0/../../../../../H-x86_64-pc-linux-gnu/nios2-elf/lib/libc.a(lib_a-atexit.o)
                                        0x208 (size before relaxing)
 .debug_str     0x000000000000489b       0x49 /home/nathan/Documents/Misc/quartus-free/pkg/quartus-free/opt/altera/18.1/nios2eds/bin/gnu/H-x86_64-pc-linux-gnu/bin/../lib/gcc/nios2-elf/5.3.0/../../../../../H-x86_64-pc-linux-gnu/nios2-elf/lib/libc.a(lib_a-exit.o)
                                        0x5a5 (size before relaxing)
 .debug_str     0x00000000000048e4       0x41 /home/nathan/Documents/Misc/quartus-free/pkg/quartus-free/opt/altera/18.1/nios2eds/bin/gnu/H-x86_64-pc-linux-gnu/bin/../lib/gcc/nios2-elf/5.3.0/../../../../../H-x86_64-pc-linux-gnu/nios2-elf/lib/libc.a(lib_a-memcmp.o)
                                        0x1cb (size before relaxing)
 .debug_str     0x0000000000004925       0x3c /home/nathan/Documents/Misc/quartus-free/pkg/quartus-free/opt/altera/18.1/nios2eds/bin/gnu/H-x86_64-pc-linux-gnu/bin/../lib/gcc/nios2-elf/5.3.0/../../../../../H-x86_64-pc-linux-gnu/nios2-elf/lib/libc.a(lib_a-__atexit.o)
                                        0x5dd (size before relaxing)
 .debug_str     0x0000000000004961       0x5d /home/nathan/Documents/Misc/quartus-free/pkg/quartus-free/opt/altera/18.1/nios2eds/bin/gnu/H-x86_64-pc-linux-gnu/bin/../lib/gcc/nios2-elf/5.3.0/../../../../../H-x86_64-pc-linux-gnu/nios2-elf/lib/libc.a(lib_a-__call_atexit.o)
                                        0x5c9 (size before relaxing)
 .debug_str     0x00000000000049be       0x2a /home/nathan/Documents/Cours/EPFL_RTES_CS476/Code/mini_project_v2/sw/mini_project_v3_bsp//libucosii_bsp.a(alt_exit.o)
                                        0x1af (size before relaxing)

.debug_loc      0x0000000000000000    0x178c0
 *(.debug_loc)
 .debug_loc     0x0000000000000000      0x4ce /home/nathan/Documents/Misc/quartus-free/pkg/quartus-free/opt/altera/18.1/nios2eds/bin/gnu/H-x86_64-pc-linux-gnu/bin/../lib/gcc/nios2-elf/5.3.0/libgcc.a(lib2-divmod.o)
 .debug_loc     0x00000000000004ce       0x58 /home/nathan/Documents/Misc/quartus-free/pkg/quartus-free/opt/altera/18.1/nios2eds/bin/gnu/H-x86_64-pc-linux-gnu/bin/../lib/gcc/nios2-elf/5.3.0/../../../../../H-x86_64-pc-linux-gnu/nios2-elf/lib/libc.a(lib_a-malloc.o)
 .debug_loc     0x0000000000000526      0xb1b /home/nathan/Documents/Misc/quartus-free/pkg/quartus-free/opt/altera/18.1/nios2eds/bin/gnu/H-x86_64-pc-linux-gnu/bin/../lib/gcc/nios2-elf/5.3.0/../../../../../H-x86_64-pc-linux-gnu/nios2-elf/lib/libc.a(lib_a-mallocr.o)
 .debug_loc     0x0000000000001041       0xd3 /home/nathan/Documents/Misc/quartus-free/pkg/quartus-free/opt/altera/18.1/nios2eds/bin/gnu/H-x86_64-pc-linux-gnu/bin/../lib/gcc/nios2-elf/5.3.0/../../../../../H-x86_64-pc-linux-gnu/nios2-elf/lib/libc.a(lib_a-printf.o)
 .debug_loc     0x0000000000001114      0x117 /home/nathan/Documents/Misc/quartus-free/pkg/quartus-free/opt/altera/18.1/nios2eds/bin/gnu/H-x86_64-pc-linux-gnu/bin/../lib/gcc/nios2-elf/5.3.0/../../../../../H-x86_64-pc-linux-gnu/nios2-elf/lib/libc.a(lib_a-puts.o)
 .debug_loc     0x000000000000122b       0x58 /home/nathan/Documents/Misc/quartus-free/pkg/quartus-free/opt/altera/18.1/nios2eds/bin/gnu/H-x86_64-pc-linux-gnu/bin/../lib/gcc/nios2-elf/5.3.0/../../../../../H-x86_64-pc-linux-gnu/nios2-elf/lib/libc.a(lib_a-sbrkr.o)
 .debug_loc     0x0000000000001283       0x47 /home/nathan/Documents/Misc/quartus-free/pkg/quartus-free/opt/altera/18.1/nios2eds/bin/gnu/H-x86_64-pc-linux-gnu/bin/../lib/gcc/nios2-elf/5.3.0/../../../../../H-x86_64-pc-linux-gnu/nios2-elf/lib/libc.a(lib_a-strlen.o)
 .debug_loc     0x00000000000012ca     0x30cf /home/nathan/Documents/Misc/quartus-free/pkg/quartus-free/opt/altera/18.1/nios2eds/bin/gnu/H-x86_64-pc-linux-gnu/bin/../lib/gcc/nios2-elf/5.3.0/../../../../../H-x86_64-pc-linux-gnu/nios2-elf/lib/libc.a(lib_a-vfprintf.o)
 .debug_loc     0x0000000000004399       0xa2 /home/nathan/Documents/Misc/quartus-free/pkg/quartus-free/opt/altera/18.1/nios2eds/bin/gnu/H-x86_64-pc-linux-gnu/bin/../lib/gcc/nios2-elf/5.3.0/../../../../../H-x86_64-pc-linux-gnu/nios2-elf/lib/libc.a(lib_a-wsetup.o)
 .debug_loc     0x000000000000443b     0x2855 /home/nathan/Documents/Misc/quartus-free/pkg/quartus-free/opt/altera/18.1/nios2eds/bin/gnu/H-x86_64-pc-linux-gnu/bin/../lib/gcc/nios2-elf/5.3.0/../../../../../H-x86_64-pc-linux-gnu/nios2-elf/lib/libc.a(lib_a-dtoa.o)
 .debug_loc     0x0000000000006c90      0x36f /home/nathan/Documents/Misc/quartus-free/pkg/quartus-free/opt/altera/18.1/nios2eds/bin/gnu/H-x86_64-pc-linux-gnu/bin/../lib/gcc/nios2-elf/5.3.0/../../../../../H-x86_64-pc-linux-gnu/nios2-elf/lib/libc.a(lib_a-fflush.o)
 .debug_loc     0x0000000000006fff      0x2ee /home/nathan/Documents/Misc/quartus-free/pkg/quartus-free/opt/altera/18.1/nios2eds/bin/gnu/H-x86_64-pc-linux-gnu/bin/../lib/gcc/nios2-elf/5.3.0/../../../../../H-x86_64-pc-linux-gnu/nios2-elf/lib/libc.a(lib_a-findfp.o)
 .debug_loc     0x00000000000072ed      0x4e7 /home/nathan/Documents/Misc/quartus-free/pkg/quartus-free/opt/altera/18.1/nios2eds/bin/gnu/H-x86_64-pc-linux-gnu/bin/../lib/gcc/nios2-elf/5.3.0/../../../../../H-x86_64-pc-linux-gnu/nios2-elf/lib/libc.a(lib_a-freer.o)
 .debug_loc     0x00000000000077d4      0x5d7 /home/nathan/Documents/Misc/quartus-free/pkg/quartus-free/opt/altera/18.1/nios2eds/bin/gnu/H-x86_64-pc-linux-gnu/bin/../lib/gcc/nios2-elf/5.3.0/../../../../../H-x86_64-pc-linux-gnu/nios2-elf/lib/libc.a(lib_a-fvwrite.o)
 .debug_loc     0x0000000000007dab      0x25b /home/nathan/Documents/Misc/quartus-free/pkg/quartus-free/opt/altera/18.1/nios2eds/bin/gnu/H-x86_64-pc-linux-gnu/bin/../lib/gcc/nios2-elf/5.3.0/../../../../../H-x86_64-pc-linux-gnu/nios2-elf/lib/libc.a(lib_a-fwalk.o)
 .debug_loc     0x0000000000008006      0x131 /home/nathan/Documents/Misc/quartus-free/pkg/quartus-free/opt/altera/18.1/nios2eds/bin/gnu/H-x86_64-pc-linux-gnu/bin/../lib/gcc/nios2-elf/5.3.0/../../../../../H-x86_64-pc-linux-gnu/nios2-elf/lib/libc.a(lib_a-locale.o)
 .debug_loc     0x0000000000008137      0x122 /home/nathan/Documents/Misc/quartus-free/pkg/quartus-free/opt/altera/18.1/nios2eds/bin/gnu/H-x86_64-pc-linux-gnu/bin/../lib/gcc/nios2-elf/5.3.0/../../../../../H-x86_64-pc-linux-gnu/nios2-elf/lib/libc.a(lib_a-makebuf.o)
 .debug_loc     0x0000000000008259      0x1a1 /home/nathan/Documents/Misc/quartus-free/pkg/quartus-free/opt/altera/18.1/nios2eds/bin/gnu/H-x86_64-pc-linux-gnu/bin/../lib/gcc/nios2-elf/5.3.0/../../../../../H-x86_64-pc-linux-gnu/nios2-elf/lib/libc.a(lib_a-memchr.o)
 .debug_loc     0x00000000000083fa      0x266 /home/nathan/Documents/Misc/quartus-free/pkg/quartus-free/opt/altera/18.1/nios2eds/bin/gnu/H-x86_64-pc-linux-gnu/bin/../lib/gcc/nios2-elf/5.3.0/../../../../../H-x86_64-pc-linux-gnu/nios2-elf/lib/libc.a(lib_a-memcpy.o)
 .debug_loc     0x0000000000008660      0x308 /home/nathan/Documents/Misc/quartus-free/pkg/quartus-free/opt/altera/18.1/nios2eds/bin/gnu/H-x86_64-pc-linux-gnu/bin/../lib/gcc/nios2-elf/5.3.0/../../../../../H-x86_64-pc-linux-gnu/nios2-elf/lib/libc.a(lib_a-memmove.o)
 .debug_loc     0x0000000000008968      0x1a6 /home/nathan/Documents/Misc/quartus-free/pkg/quartus-free/opt/altera/18.1/nios2eds/bin/gnu/H-x86_64-pc-linux-gnu/bin/../lib/gcc/nios2-elf/5.3.0/../../../../../H-x86_64-pc-linux-gnu/nios2-elf/lib/libc.a(lib_a-memset.o)
 .debug_loc     0x0000000000008b0e     0x1bee /home/nathan/Documents/Misc/quartus-free/pkg/quartus-free/opt/altera/18.1/nios2eds/bin/gnu/H-x86_64-pc-linux-gnu/bin/../lib/gcc/nios2-elf/5.3.0/../../../../../H-x86_64-pc-linux-gnu/nios2-elf/lib/libc.a(lib_a-mprec.o)
 .debug_loc     0x000000000000a6fc      0xde4 /home/nathan/Documents/Misc/quartus-free/pkg/quartus-free/opt/altera/18.1/nios2eds/bin/gnu/H-x86_64-pc-linux-gnu/bin/../lib/gcc/nios2-elf/5.3.0/../../../../../H-x86_64-pc-linux-gnu/nios2-elf/lib/libc.a(lib_a-reallocr.o)
 .debug_loc     0x000000000000b4e0       0x2f /home/nathan/Documents/Misc/quartus-free/pkg/quartus-free/opt/altera/18.1/nios2eds/bin/gnu/H-x86_64-pc-linux-gnu/bin/../lib/gcc/nios2-elf/5.3.0/../../../../../H-x86_64-pc-linux-gnu/nios2-elf/lib/libc.a(lib_a-s_fpclassify.o)
 .debug_loc     0x000000000000b50f      0x33a /home/nathan/Documents/Misc/quartus-free/pkg/quartus-free/opt/altera/18.1/nios2eds/bin/gnu/H-x86_64-pc-linux-gnu/bin/../lib/gcc/nios2-elf/5.3.0/../../../../../H-x86_64-pc-linux-gnu/nios2-elf/lib/libc.a(lib_a-stdio.o)
 .debug_loc     0x000000000000b849       0xc6 /home/nathan/Documents/Misc/quartus-free/pkg/quartus-free/opt/altera/18.1/nios2eds/bin/gnu/H-x86_64-pc-linux-gnu/bin/../lib/gcc/nios2-elf/5.3.0/../../../../../H-x86_64-pc-linux-gnu/nios2-elf/lib/libc.a(lib_a-strcmp.o)
 .debug_loc     0x000000000000b90f     0x2739 /home/nathan/Documents/Misc/quartus-free/pkg/quartus-free/opt/altera/18.1/nios2eds/bin/gnu/H-x86_64-pc-linux-gnu/bin/../lib/gcc/nios2-elf/5.3.0/../../../../../H-x86_64-pc-linux-gnu/nios2-elf/lib/libc.a(lib_a-vfiprintf.o)
 .debug_loc     0x000000000000e048       0xb0 /home/nathan/Documents/Misc/quartus-free/pkg/quartus-free/opt/altera/18.1/nios2eds/bin/gnu/H-x86_64-pc-linux-gnu/bin/../lib/gcc/nios2-elf/5.3.0/../../../../../H-x86_64-pc-linux-gnu/nios2-elf/lib/libc.a(lib_a-writer.o)
 .debug_loc     0x000000000000e0f8       0x58 /home/nathan/Documents/Misc/quartus-free/pkg/quartus-free/opt/altera/18.1/nios2eds/bin/gnu/H-x86_64-pc-linux-gnu/bin/../lib/gcc/nios2-elf/5.3.0/../../../../../H-x86_64-pc-linux-gnu/nios2-elf/lib/libc.a(closer.o)
 .debug_loc     0x000000000000e150      0x1db /home/nathan/Documents/Misc/quartus-free/pkg/quartus-free/opt/altera/18.1/nios2eds/bin/gnu/H-x86_64-pc-linux-gnu/bin/../lib/gcc/nios2-elf/5.3.0/../../../../../H-x86_64-pc-linux-gnu/nios2-elf/lib/libc.a(lib_a-callocr.o)
 .debug_loc     0x000000000000e32b      0x199 /home/nathan/Documents/Misc/quartus-free/pkg/quartus-free/opt/altera/18.1/nios2eds/bin/gnu/H-x86_64-pc-linux-gnu/bin/../lib/gcc/nios2-elf/5.3.0/../../../../../H-x86_64-pc-linux-gnu/nios2-elf/lib/libc.a(lib_a-fclose.o)
 .debug_loc     0x000000000000e4c4      0x2a1 /home/nathan/Documents/Misc/quartus-free/pkg/quartus-free/opt/altera/18.1/nios2eds/bin/gnu/H-x86_64-pc-linux-gnu/bin/../lib/gcc/nios2-elf/5.3.0/../../../../../H-x86_64-pc-linux-gnu/nios2-elf/lib/libc.a(lib_a-fputwc.o)
 .debug_loc     0x000000000000e765       0x84 /home/nathan/Documents/Misc/quartus-free/pkg/quartus-free/opt/altera/18.1/nios2eds/bin/gnu/H-x86_64-pc-linux-gnu/bin/../lib/gcc/nios2-elf/5.3.0/../../../../../H-x86_64-pc-linux-gnu/nios2-elf/lib/libc.a(lib_a-fstatr.o)
 .debug_loc     0x000000000000e7e9       0x58 /home/nathan/Documents/Misc/quartus-free/pkg/quartus-free/opt/altera/18.1/nios2eds/bin/gnu/H-x86_64-pc-linux-gnu/bin/../lib/gcc/nios2-elf/5.3.0/../../../../../H-x86_64-pc-linux-gnu/nios2-elf/lib/libc.a(lib_a-isattyr.o)
 .debug_loc     0x000000000000e841       0xb0 /home/nathan/Documents/Misc/quartus-free/pkg/quartus-free/opt/altera/18.1/nios2eds/bin/gnu/H-x86_64-pc-linux-gnu/bin/../lib/gcc/nios2-elf/5.3.0/../../../../../H-x86_64-pc-linux-gnu/nios2-elf/lib/libc.a(lib_a-lseekr.o)
 .debug_loc     0x000000000000e8f1       0xb0 /home/nathan/Documents/Misc/quartus-free/pkg/quartus-free/opt/altera/18.1/nios2eds/bin/gnu/H-x86_64-pc-linux-gnu/bin/../lib/gcc/nios2-elf/5.3.0/../../../../../H-x86_64-pc-linux-gnu/nios2-elf/lib/libc.a(lib_a-readr.o)
 .debug_loc     0x000000000000e9a1      0x1b2 /home/nathan/Documents/Misc/quartus-free/pkg/quartus-free/opt/altera/18.1/nios2eds/bin/gnu/H-x86_64-pc-linux-gnu/bin/../lib/gcc/nios2-elf/5.3.0/../../../../../H-x86_64-pc-linux-gnu/nios2-elf/lib/libc.a(lib_a-wbuf.o)
 .debug_loc     0x000000000000eb53      0x24e /home/nathan/Documents/Misc/quartus-free/pkg/quartus-free/opt/altera/18.1/nios2eds/bin/gnu/H-x86_64-pc-linux-gnu/bin/../lib/gcc/nios2-elf/5.3.0/../../../../../H-x86_64-pc-linux-gnu/nios2-elf/lib/libc.a(lib_a-wcrtomb.o)
 .debug_loc     0x000000000000eda1       0x8f /home/nathan/Documents/Misc/quartus-free/pkg/quartus-free/opt/altera/18.1/nios2eds/bin/gnu/H-x86_64-pc-linux-gnu/bin/../lib/gcc/nios2-elf/5.3.0/../../../../../H-x86_64-pc-linux-gnu/nios2-elf/lib/libc.a(lib_a-wctomb_r.o)
 .debug_loc     0x000000000000ee30     0x10ca /home/nathan/Documents/Misc/quartus-free/pkg/quartus-free/opt/altera/18.1/nios2eds/bin/gnu/H-x86_64-pc-linux-gnu/bin/../lib/gcc/nios2-elf/5.3.0/libgcc.a(_udivdi3.o)
 .debug_loc     0x000000000000fefa     0x10ad /home/nathan/Documents/Misc/quartus-free/pkg/quartus-free/opt/altera/18.1/nios2eds/bin/gnu/H-x86_64-pc-linux-gnu/bin/../lib/gcc/nios2-elf/5.3.0/libgcc.a(_umoddi3.o)
 .debug_loc     0x0000000000010fa7     0x16f9 /home/nathan/Documents/Misc/quartus-free/pkg/quartus-free/opt/altera/18.1/nios2eds/bin/gnu/H-x86_64-pc-linux-gnu/bin/../lib/gcc/nios2-elf/5.3.0/libgcc.a(adddf3.o)
 .debug_loc     0x00000000000126a0     0x1fc6 /home/nathan/Documents/Misc/quartus-free/pkg/quartus-free/opt/altera/18.1/nios2eds/bin/gnu/H-x86_64-pc-linux-gnu/bin/../lib/gcc/nios2-elf/5.3.0/libgcc.a(divdf3.o)
 .debug_loc     0x0000000000014666       0x68 /home/nathan/Documents/Misc/quartus-free/pkg/quartus-free/opt/altera/18.1/nios2eds/bin/gnu/H-x86_64-pc-linux-gnu/bin/../lib/gcc/nios2-elf/5.3.0/libgcc.a(eqdf2.o)
 .debug_loc     0x00000000000146ce       0xf9 /home/nathan/Documents/Misc/quartus-free/pkg/quartus-free/opt/altera/18.1/nios2eds/bin/gnu/H-x86_64-pc-linux-gnu/bin/../lib/gcc/nios2-elf/5.3.0/libgcc.a(gedf2.o)
 .debug_loc     0x00000000000147c7      0x163 /home/nathan/Documents/Misc/quartus-free/pkg/quartus-free/opt/altera/18.1/nios2eds/bin/gnu/H-x86_64-pc-linux-gnu/bin/../lib/gcc/nios2-elf/5.3.0/libgcc.a(ledf2.o)
 .debug_loc     0x000000000001492a     0x100d /home/nathan/Documents/Misc/quartus-free/pkg/quartus-free/opt/altera/18.1/nios2eds/bin/gnu/H-x86_64-pc-linux-gnu/bin/../lib/gcc/nios2-elf/5.3.0/libgcc.a(muldf3.o)
 .debug_loc     0x0000000000015937     0x1627 /home/nathan/Documents/Misc/quartus-free/pkg/quartus-free/opt/altera/18.1/nios2eds/bin/gnu/H-x86_64-pc-linux-gnu/bin/../lib/gcc/nios2-elf/5.3.0/libgcc.a(subdf3.o)
 .debug_loc     0x0000000000016f5e      0x121 /home/nathan/Documents/Misc/quartus-free/pkg/quartus-free/opt/altera/18.1/nios2eds/bin/gnu/H-x86_64-pc-linux-gnu/bin/../lib/gcc/nios2-elf/5.3.0/libgcc.a(fixdfsi.o)
 .debug_loc     0x000000000001707f      0x175 /home/nathan/Documents/Misc/quartus-free/pkg/quartus-free/opt/altera/18.1/nios2eds/bin/gnu/H-x86_64-pc-linux-gnu/bin/../lib/gcc/nios2-elf/5.3.0/libgcc.a(floatsidf.o)
 .debug_loc     0x00000000000171f4      0x19e /home/nathan/Documents/Misc/quartus-free/pkg/quartus-free/opt/altera/18.1/nios2eds/bin/gnu/H-x86_64-pc-linux-gnu/bin/../lib/gcc/nios2-elf/5.3.0/libgcc.a(floatunsidf.o)
 .debug_loc     0x0000000000017392       0x6b /home/nathan/Documents/Misc/quartus-free/pkg/quartus-free/opt/altera/18.1/nios2eds/bin/gnu/H-x86_64-pc-linux-gnu/bin/../lib/gcc/nios2-elf/5.3.0/libgcc.a(_clzsi2.o)
 .debug_loc     0x00000000000173fd       0x2c /home/nathan/Documents/Misc/quartus-free/pkg/quartus-free/opt/altera/18.1/nios2eds/bin/gnu/H-x86_64-pc-linux-gnu/bin/../lib/gcc/nios2-elf/5.3.0/../../../../../H-x86_64-pc-linux-gnu/nios2-elf/lib/libc.a(lib_a-atexit.o)
 .debug_loc     0x0000000000017429       0x1e /home/nathan/Documents/Misc/quartus-free/pkg/quartus-free/opt/altera/18.1/nios2eds/bin/gnu/H-x86_64-pc-linux-gnu/bin/../lib/gcc/nios2-elf/5.3.0/../../../../../H-x86_64-pc-linux-gnu/nios2-elf/lib/libc.a(lib_a-exit.o)
 .debug_loc     0x0000000000017447      0x126 /home/nathan/Documents/Misc/quartus-free/pkg/quartus-free/opt/altera/18.1/nios2eds/bin/gnu/H-x86_64-pc-linux-gnu/bin/../lib/gcc/nios2-elf/5.3.0/../../../../../H-x86_64-pc-linux-gnu/nios2-elf/lib/libc.a(lib_a-memcmp.o)
 .debug_loc     0x000000000001756d      0x185 /home/nathan/Documents/Misc/quartus-free/pkg/quartus-free/opt/altera/18.1/nios2eds/bin/gnu/H-x86_64-pc-linux-gnu/bin/../lib/gcc/nios2-elf/5.3.0/../../../../../H-x86_64-pc-linux-gnu/nios2-elf/lib/libc.a(lib_a-__atexit.o)
 .debug_loc     0x00000000000176f2      0x1ce /home/nathan/Documents/Misc/quartus-free/pkg/quartus-free/opt/altera/18.1/nios2eds/bin/gnu/H-x86_64-pc-linux-gnu/bin/../lib/gcc/nios2-elf/5.3.0/../../../../../H-x86_64-pc-linux-gnu/nios2-elf/lib/libc.a(lib_a-__call_atexit.o)

.debug_macinfo
 *(.debug_macinfo)

.debug_weaknames
 *(.debug_weaknames)

.debug_funcnames
 *(.debug_funcnames)

.debug_typenames
 *(.debug_typenames)

.debug_varnames
 *(.debug_varnames)

.debug_alt_sim_info
                0x0000000000000000       0x10
 *(.debug_alt_sim_info)
 .debug_alt_sim_info
                0x0000000000000000       0x10 /home/nathan/Documents/Cours/EPFL_RTES_CS476/Code/mini_project_v2/sw/mini_project_v3_bsp//obj/HAL/src/crt0.o
                0x0000000004000000                __alt_data_end = 0x4000000
                0x0000000004000000                PROVIDE (__alt_stack_pointer, __alt_data_end)
                [!provide]                        PROVIDE (__alt_stack_limit, __alt_stack_base)
                0x0000000000021be4                PROVIDE (__alt_heap_start, end)
                0x0000000004000000                PROVIDE (__alt_heap_limit, 0x4000000)
OUTPUT(mini_project_v3.elf elf32-littlenios2)

.debug_ranges   0x0000000000000000     0x18d8
 .debug_ranges  0x0000000000000000       0x20 /home/nathan/Documents/Cours/EPFL_RTES_CS476/Code/mini_project_v2/sw/mini_project_v3_bsp//obj/HAL/src/crt0.o
 .debug_ranges  0x0000000000000020       0x60 /home/nathan/Documents/Misc/quartus-free/pkg/quartus-free/opt/altera/18.1/nios2eds/bin/gnu/H-x86_64-pc-linux-gnu/bin/../lib/gcc/nios2-elf/5.3.0/libgcc.a(lib2-divmod.o)
 .debug_ranges  0x0000000000000080       0x18 /home/nathan/Documents/Misc/quartus-free/pkg/quartus-free/opt/altera/18.1/nios2eds/bin/gnu/H-x86_64-pc-linux-gnu/bin/../lib/gcc/nios2-elf/5.3.0/../../../../../H-x86_64-pc-linux-gnu/nios2-elf/lib/libc.a(lib_a-malloc.o)
 .debug_ranges  0x0000000000000098       0x48 /home/nathan/Documents/Misc/quartus-free/pkg/quartus-free/opt/altera/18.1/nios2eds/bin/gnu/H-x86_64-pc-linux-gnu/bin/../lib/gcc/nios2-elf/5.3.0/../../../../../H-x86_64-pc-linux-gnu/nios2-elf/lib/libc.a(lib_a-mallocr.o)
 .debug_ranges  0x00000000000000e0       0x18 /home/nathan/Documents/Misc/quartus-free/pkg/quartus-free/opt/altera/18.1/nios2eds/bin/gnu/H-x86_64-pc-linux-gnu/bin/../lib/gcc/nios2-elf/5.3.0/../../../../../H-x86_64-pc-linux-gnu/nios2-elf/lib/libc.a(lib_a-printf.o)
 .debug_ranges  0x00000000000000f8       0x30 /home/nathan/Documents/Misc/quartus-free/pkg/quartus-free/opt/altera/18.1/nios2eds/bin/gnu/H-x86_64-pc-linux-gnu/bin/../lib/gcc/nios2-elf/5.3.0/../../../../../H-x86_64-pc-linux-gnu/nios2-elf/lib/libc.a(lib_a-puts.o)
 .debug_ranges  0x0000000000000128       0x10 /home/nathan/Documents/Misc/quartus-free/pkg/quartus-free/opt/altera/18.1/nios2eds/bin/gnu/H-x86_64-pc-linux-gnu/bin/../lib/gcc/nios2-elf/5.3.0/../../../../../H-x86_64-pc-linux-gnu/nios2-elf/lib/libc.a(lib_a-sbrkr.o)
 .debug_ranges  0x0000000000000138       0x10 /home/nathan/Documents/Misc/quartus-free/pkg/quartus-free/opt/altera/18.1/nios2eds/bin/gnu/H-x86_64-pc-linux-gnu/bin/../lib/gcc/nios2-elf/5.3.0/../../../../../H-x86_64-pc-linux-gnu/nios2-elf/lib/libc.a(lib_a-strlen.o)
 .debug_ranges  0x0000000000000148      0x178 /home/nathan/Documents/Misc/quartus-free/pkg/quartus-free/opt/altera/18.1/nios2eds/bin/gnu/H-x86_64-pc-linux-gnu/bin/../lib/gcc/nios2-elf/5.3.0/../../../../../H-x86_64-pc-linux-gnu/nios2-elf/lib/libc.a(lib_a-vfprintf.o)
 .debug_ranges  0x00000000000002c0       0x40 /home/nathan/Documents/Misc/quartus-free/pkg/quartus-free/opt/altera/18.1/nios2eds/bin/gnu/H-x86_64-pc-linux-gnu/bin/../lib/gcc/nios2-elf/5.3.0/../../../../../H-x86_64-pc-linux-gnu/nios2-elf/lib/libc.a(lib_a-wsetup.o)
 .debug_ranges  0x0000000000000300       0x18 /home/nathan/Documents/Misc/quartus-free/pkg/quartus-free/opt/altera/18.1/nios2eds/bin/gnu/H-x86_64-pc-linux-gnu/bin/../lib/gcc/nios2-elf/5.3.0/../../../../../H-x86_64-pc-linux-gnu/nios2-elf/lib/libc.a(lib_a-dtoa.o)
 .debug_ranges  0x0000000000000318       0x58 /home/nathan/Documents/Misc/quartus-free/pkg/quartus-free/opt/altera/18.1/nios2eds/bin/gnu/H-x86_64-pc-linux-gnu/bin/../lib/gcc/nios2-elf/5.3.0/../../../../../H-x86_64-pc-linux-gnu/nios2-elf/lib/libc.a(lib_a-fflush.o)
 .debug_ranges  0x0000000000000370       0xc8 /home/nathan/Documents/Misc/quartus-free/pkg/quartus-free/opt/altera/18.1/nios2eds/bin/gnu/H-x86_64-pc-linux-gnu/bin/../lib/gcc/nios2-elf/5.3.0/../../../../../H-x86_64-pc-linux-gnu/nios2-elf/lib/libc.a(lib_a-findfp.o)
 .debug_ranges  0x0000000000000438       0x18 /home/nathan/Documents/Misc/quartus-free/pkg/quartus-free/opt/altera/18.1/nios2eds/bin/gnu/H-x86_64-pc-linux-gnu/bin/../lib/gcc/nios2-elf/5.3.0/../../../../../H-x86_64-pc-linux-gnu/nios2-elf/lib/libc.a(lib_a-freer.o)
 .debug_ranges  0x0000000000000450       0x30 /home/nathan/Documents/Misc/quartus-free/pkg/quartus-free/opt/altera/18.1/nios2eds/bin/gnu/H-x86_64-pc-linux-gnu/bin/../lib/gcc/nios2-elf/5.3.0/../../../../../H-x86_64-pc-linux-gnu/nios2-elf/lib/libc.a(lib_a-fvwrite.o)
 .debug_ranges  0x0000000000000480       0x18 /home/nathan/Documents/Misc/quartus-free/pkg/quartus-free/opt/altera/18.1/nios2eds/bin/gnu/H-x86_64-pc-linux-gnu/bin/../lib/gcc/nios2-elf/5.3.0/../../../../../H-x86_64-pc-linux-gnu/nios2-elf/lib/libc.a(lib_a-fwalk.o)
 .debug_ranges  0x0000000000000498       0x60 /home/nathan/Documents/Misc/quartus-free/pkg/quartus-free/opt/altera/18.1/nios2eds/bin/gnu/H-x86_64-pc-linux-gnu/bin/../lib/gcc/nios2-elf/5.3.0/../../../../../H-x86_64-pc-linux-gnu/nios2-elf/lib/libc.a(lib_a-locale.o)
 .debug_ranges  0x00000000000004f8       0x10 /home/nathan/Documents/Misc/quartus-free/pkg/quartus-free/opt/altera/18.1/nios2eds/bin/gnu/H-x86_64-pc-linux-gnu/bin/../lib/gcc/nios2-elf/5.3.0/../../../../../H-x86_64-pc-linux-gnu/nios2-elf/lib/libc.a(lib_a-makebuf.o)
 .debug_ranges  0x0000000000000508       0x10 /home/nathan/Documents/Misc/quartus-free/pkg/quartus-free/opt/altera/18.1/nios2eds/bin/gnu/H-x86_64-pc-linux-gnu/bin/../lib/gcc/nios2-elf/5.3.0/../../../../../H-x86_64-pc-linux-gnu/nios2-elf/lib/libc.a(lib_a-memchr.o)
 .debug_ranges  0x0000000000000518       0x10 /home/nathan/Documents/Misc/quartus-free/pkg/quartus-free/opt/altera/18.1/nios2eds/bin/gnu/H-x86_64-pc-linux-gnu/bin/../lib/gcc/nios2-elf/5.3.0/../../../../../H-x86_64-pc-linux-gnu/nios2-elf/lib/libc.a(lib_a-memcpy.o)
 .debug_ranges  0x0000000000000528       0x10 /home/nathan/Documents/Misc/quartus-free/pkg/quartus-free/opt/altera/18.1/nios2eds/bin/gnu/H-x86_64-pc-linux-gnu/bin/../lib/gcc/nios2-elf/5.3.0/../../../../../H-x86_64-pc-linux-gnu/nios2-elf/lib/libc.a(lib_a-memmove.o)
 .debug_ranges  0x0000000000000538       0x10 /home/nathan/Documents/Misc/quartus-free/pkg/quartus-free/opt/altera/18.1/nios2eds/bin/gnu/H-x86_64-pc-linux-gnu/bin/../lib/gcc/nios2-elf/5.3.0/../../../../../H-x86_64-pc-linux-gnu/nios2-elf/lib/libc.a(lib_a-memset.o)
 .debug_ranges  0x0000000000000548       0xe8 /home/nathan/Documents/Misc/quartus-free/pkg/quartus-free/opt/altera/18.1/nios2eds/bin/gnu/H-x86_64-pc-linux-gnu/bin/../lib/gcc/nios2-elf/5.3.0/../../../../../H-x86_64-pc-linux-gnu/nios2-elf/lib/libc.a(lib_a-mprec.o)
 .debug_ranges  0x0000000000000630      0x148 /home/nathan/Documents/Misc/quartus-free/pkg/quartus-free/opt/altera/18.1/nios2eds/bin/gnu/H-x86_64-pc-linux-gnu/bin/../lib/gcc/nios2-elf/5.3.0/../../../../../H-x86_64-pc-linux-gnu/nios2-elf/lib/libc.a(lib_a-reallocr.o)
 .debug_ranges  0x0000000000000778       0x10 /home/nathan/Documents/Misc/quartus-free/pkg/quartus-free/opt/altera/18.1/nios2eds/bin/gnu/H-x86_64-pc-linux-gnu/bin/../lib/gcc/nios2-elf/5.3.0/../../../../../H-x86_64-pc-linux-gnu/nios2-elf/lib/libc.a(lib_a-s_fpclassify.o)
 .debug_ranges  0x0000000000000788       0x30 /home/nathan/Documents/Misc/quartus-free/pkg/quartus-free/opt/altera/18.1/nios2eds/bin/gnu/H-x86_64-pc-linux-gnu/bin/../lib/gcc/nios2-elf/5.3.0/../../../../../H-x86_64-pc-linux-gnu/nios2-elf/lib/libc.a(lib_a-stdio.o)
 .debug_ranges  0x00000000000007b8       0x10 /home/nathan/Documents/Misc/quartus-free/pkg/quartus-free/opt/altera/18.1/nios2eds/bin/gnu/H-x86_64-pc-linux-gnu/bin/../lib/gcc/nios2-elf/5.3.0/../../../../../H-x86_64-pc-linux-gnu/nios2-elf/lib/libc.a(lib_a-strcmp.o)
 .debug_ranges  0x00000000000007c8      0x1b8 /home/nathan/Documents/Misc/quartus-free/pkg/quartus-free/opt/altera/18.1/nios2eds/bin/gnu/H-x86_64-pc-linux-gnu/bin/../lib/gcc/nios2-elf/5.3.0/../../../../../H-x86_64-pc-linux-gnu/nios2-elf/lib/libc.a(lib_a-vfiprintf.o)
 .debug_ranges  0x0000000000000980       0x10 /home/nathan/Documents/Misc/quartus-free/pkg/quartus-free/opt/altera/18.1/nios2eds/bin/gnu/H-x86_64-pc-linux-gnu/bin/../lib/gcc/nios2-elf/5.3.0/../../../../../H-x86_64-pc-linux-gnu/nios2-elf/lib/libc.a(lib_a-writer.o)
 .debug_ranges  0x0000000000000990       0x10 /home/nathan/Documents/Misc/quartus-free/pkg/quartus-free/opt/altera/18.1/nios2eds/bin/gnu/H-x86_64-pc-linux-gnu/bin/../lib/gcc/nios2-elf/5.3.0/../../../../../H-x86_64-pc-linux-gnu/nios2-elf/lib/libc.a(closer.o)
 .debug_ranges  0x00000000000009a0       0x48 /home/nathan/Documents/Misc/quartus-free/pkg/quartus-free/opt/altera/18.1/nios2eds/bin/gnu/H-x86_64-pc-linux-gnu/bin/../lib/gcc/nios2-elf/5.3.0/../../../../../H-x86_64-pc-linux-gnu/nios2-elf/lib/libc.a(lib_a-callocr.o)
 .debug_ranges  0x00000000000009e8       0x48 /home/nathan/Documents/Misc/quartus-free/pkg/quartus-free/opt/altera/18.1/nios2eds/bin/gnu/H-x86_64-pc-linux-gnu/bin/../lib/gcc/nios2-elf/5.3.0/../../../../../H-x86_64-pc-linux-gnu/nios2-elf/lib/libc.a(lib_a-fclose.o)
 .debug_ranges  0x0000000000000a30       0x50 /home/nathan/Documents/Misc/quartus-free/pkg/quartus-free/opt/altera/18.1/nios2eds/bin/gnu/H-x86_64-pc-linux-gnu/bin/../lib/gcc/nios2-elf/5.3.0/../../../../../H-x86_64-pc-linux-gnu/nios2-elf/lib/libc.a(lib_a-fputwc.o)
 .debug_ranges  0x0000000000000a80       0x10 /home/nathan/Documents/Misc/quartus-free/pkg/quartus-free/opt/altera/18.1/nios2eds/bin/gnu/H-x86_64-pc-linux-gnu/bin/../lib/gcc/nios2-elf/5.3.0/../../../../../H-x86_64-pc-linux-gnu/nios2-elf/lib/libc.a(lib_a-fstatr.o)
 .debug_ranges  0x0000000000000a90       0x10 /home/nathan/Documents/Misc/quartus-free/pkg/quartus-free/opt/altera/18.1/nios2eds/bin/gnu/H-x86_64-pc-linux-gnu/bin/../lib/gcc/nios2-elf/5.3.0/../../../../../H-x86_64-pc-linux-gnu/nios2-elf/lib/libc.a(lib_a-isattyr.o)
 .debug_ranges  0x0000000000000aa0       0x10 /home/nathan/Documents/Misc/quartus-free/pkg/quartus-free/opt/altera/18.1/nios2eds/bin/gnu/H-x86_64-pc-linux-gnu/bin/../lib/gcc/nios2-elf/5.3.0/../../../../../H-x86_64-pc-linux-gnu/nios2-elf/lib/libc.a(lib_a-lseekr.o)
 .debug_ranges  0x0000000000000ab0       0x10 /home/nathan/Documents/Misc/quartus-free/pkg/quartus-free/opt/altera/18.1/nios2eds/bin/gnu/H-x86_64-pc-linux-gnu/bin/../lib/gcc/nios2-elf/5.3.0/../../../../../H-x86_64-pc-linux-gnu/nios2-elf/lib/libc.a(lib_a-readr.o)
 .debug_ranges  0x0000000000000ac0       0x30 /home/nathan/Documents/Misc/quartus-free/pkg/quartus-free/opt/altera/18.1/nios2eds/bin/gnu/H-x86_64-pc-linux-gnu/bin/../lib/gcc/nios2-elf/5.3.0/../../../../../H-x86_64-pc-linux-gnu/nios2-elf/lib/libc.a(lib_a-wbuf.o)
 .debug_ranges  0x0000000000000af0       0x18 /home/nathan/Documents/Misc/quartus-free/pkg/quartus-free/opt/altera/18.1/nios2eds/bin/gnu/H-x86_64-pc-linux-gnu/bin/../lib/gcc/nios2-elf/5.3.0/../../../../../H-x86_64-pc-linux-gnu/nios2-elf/lib/libc.a(lib_a-wcrtomb.o)
 .debug_ranges  0x0000000000000b08       0x18 /home/nathan/Documents/Misc/quartus-free/pkg/quartus-free/opt/altera/18.1/nios2eds/bin/gnu/H-x86_64-pc-linux-gnu/bin/../lib/gcc/nios2-elf/5.3.0/../../../../../H-x86_64-pc-linux-gnu/nios2-elf/lib/libc.a(lib_a-wctomb_r.o)
 .debug_ranges  0x0000000000000b20      0x158 /home/nathan/Documents/Misc/quartus-free/pkg/quartus-free/opt/altera/18.1/nios2eds/bin/gnu/H-x86_64-pc-linux-gnu/bin/../lib/gcc/nios2-elf/5.3.0/libgcc.a(_udivdi3.o)
 .debug_ranges  0x0000000000000c78      0x160 /home/nathan/Documents/Misc/quartus-free/pkg/quartus-free/opt/altera/18.1/nios2eds/bin/gnu/H-x86_64-pc-linux-gnu/bin/../lib/gcc/nios2-elf/5.3.0/libgcc.a(_umoddi3.o)
 .debug_ranges  0x0000000000000dd8      0x240 /home/nathan/Documents/Misc/quartus-free/pkg/quartus-free/opt/altera/18.1/nios2eds/bin/gnu/H-x86_64-pc-linux-gnu/bin/../lib/gcc/nios2-elf/5.3.0/libgcc.a(adddf3.o)
 .debug_ranges  0x0000000000001018      0x138 /home/nathan/Documents/Misc/quartus-free/pkg/quartus-free/opt/altera/18.1/nios2eds/bin/gnu/H-x86_64-pc-linux-gnu/bin/../lib/gcc/nios2-elf/5.3.0/libgcc.a(divdf3.o)
 .debug_ranges  0x0000000000001150       0x48 /home/nathan/Documents/Misc/quartus-free/pkg/quartus-free/opt/altera/18.1/nios2eds/bin/gnu/H-x86_64-pc-linux-gnu/bin/../lib/gcc/nios2-elf/5.3.0/libgcc.a(eqdf2.o)
 .debug_ranges  0x0000000000001198       0x88 /home/nathan/Documents/Misc/quartus-free/pkg/quartus-free/opt/altera/18.1/nios2eds/bin/gnu/H-x86_64-pc-linux-gnu/bin/../lib/gcc/nios2-elf/5.3.0/libgcc.a(gedf2.o)
 .debug_ranges  0x0000000000001220       0xa8 /home/nathan/Documents/Misc/quartus-free/pkg/quartus-free/opt/altera/18.1/nios2eds/bin/gnu/H-x86_64-pc-linux-gnu/bin/../lib/gcc/nios2-elf/5.3.0/libgcc.a(ledf2.o)
 .debug_ranges  0x00000000000012c8      0x1f0 /home/nathan/Documents/Misc/quartus-free/pkg/quartus-free/opt/altera/18.1/nios2eds/bin/gnu/H-x86_64-pc-linux-gnu/bin/../lib/gcc/nios2-elf/5.3.0/libgcc.a(muldf3.o)
 .debug_ranges  0x00000000000014b8      0x268 /home/nathan/Documents/Misc/quartus-free/pkg/quartus-free/opt/altera/18.1/nios2eds/bin/gnu/H-x86_64-pc-linux-gnu/bin/../lib/gcc/nios2-elf/5.3.0/libgcc.a(subdf3.o)
 .debug_ranges  0x0000000000001720       0x30 /home/nathan/Documents/Misc/quartus-free/pkg/quartus-free/opt/altera/18.1/nios2eds/bin/gnu/H-x86_64-pc-linux-gnu/bin/../lib/gcc/nios2-elf/5.3.0/libgcc.a(fixdfsi.o)
 .debug_ranges  0x0000000000001750       0x20 /home/nathan/Documents/Misc/quartus-free/pkg/quartus-free/opt/altera/18.1/nios2eds/bin/gnu/H-x86_64-pc-linux-gnu/bin/../lib/gcc/nios2-elf/5.3.0/libgcc.a(floatsidf.o)
 .debug_ranges  0x0000000000001770       0x18 /home/nathan/Documents/Misc/quartus-free/pkg/quartus-free/opt/altera/18.1/nios2eds/bin/gnu/H-x86_64-pc-linux-gnu/bin/../lib/gcc/nios2-elf/5.3.0/libgcc.a(floatunsidf.o)
 .debug_ranges  0x0000000000001788       0x18 /home/nathan/Documents/Misc/quartus-free/pkg/quartus-free/opt/altera/18.1/nios2eds/bin/gnu/H-x86_64-pc-linux-gnu/bin/../lib/gcc/nios2-elf/5.3.0/libgcc.a(_clzsi2.o)
 .debug_ranges  0x00000000000017a0       0x30 /home/nathan/Documents/Cours/EPFL_RTES_CS476/Code/mini_project_v2/sw/mini_project_v3_bsp//libucosii_bsp.a(altera_avalon_jtag_uart_init.o)
 .debug_ranges  0x00000000000017d0       0x18 /home/nathan/Documents/Cours/EPFL_RTES_CS476/Code/mini_project_v2/sw/mini_project_v3_bsp//libucosii_bsp.a(altera_avalon_jtag_uart_read.o)
 .debug_ranges  0x00000000000017e8       0x28 /home/nathan/Documents/Cours/EPFL_RTES_CS476/Code/mini_project_v2/sw/mini_project_v3_bsp//libucosii_bsp.a(alt_irq_entry.o)
 .debug_ranges  0x0000000000001810       0x10 /home/nathan/Documents/Cours/EPFL_RTES_CS476/Code/mini_project_v2/sw/mini_project_v3_bsp//libucosii_bsp.a(alt_irq_handler.o)
 .debug_ranges  0x0000000000001820       0x30 /home/nathan/Documents/Cours/EPFL_RTES_CS476/Code/mini_project_v2/sw/mini_project_v3_bsp//libucosii_bsp.a(alt_exception_entry.o)
 .debug_ranges  0x0000000000001850       0x18 /home/nathan/Documents/Cours/EPFL_RTES_CS476/Code/mini_project_v2/sw/mini_project_v3_bsp//libucosii_bsp.a(alt_instruction_exception_entry.o)
 .debug_ranges  0x0000000000001868       0x10 /home/nathan/Documents/Misc/quartus-free/pkg/quartus-free/opt/altera/18.1/nios2eds/bin/gnu/H-x86_64-pc-linux-gnu/bin/../lib/gcc/nios2-elf/5.3.0/../../../../../H-x86_64-pc-linux-gnu/nios2-elf/lib/libc.a(lib_a-atexit.o)
 .debug_ranges  0x0000000000001878       0x10 /home/nathan/Documents/Misc/quartus-free/pkg/quartus-free/opt/altera/18.1/nios2eds/bin/gnu/H-x86_64-pc-linux-gnu/bin/../lib/gcc/nios2-elf/5.3.0/../../../../../H-x86_64-pc-linux-gnu/nios2-elf/lib/libc.a(lib_a-exit.o)
 .debug_ranges  0x0000000000001888       0x10 /home/nathan/Documents/Misc/quartus-free/pkg/quartus-free/opt/altera/18.1/nios2eds/bin/gnu/H-x86_64-pc-linux-gnu/bin/../lib/gcc/nios2-elf/5.3.0/../../../../../H-x86_64-pc-linux-gnu/nios2-elf/lib/libc.a(lib_a-memcmp.o)
 .debug_ranges  0x0000000000001898       0x10 /home/nathan/Documents/Misc/quartus-free/pkg/quartus-free/opt/altera/18.1/nios2eds/bin/gnu/H-x86_64-pc-linux-gnu/bin/../lib/gcc/nios2-elf/5.3.0/../../../../../H-x86_64-pc-linux-gnu/nios2-elf/lib/libc.a(lib_a-__atexit.o)
 .debug_ranges  0x00000000000018a8       0x30 /home/nathan/Documents/Misc/quartus-free/pkg/quartus-free/opt/altera/18.1/nios2eds/bin/gnu/H-x86_64-pc-linux-gnu/bin/../lib/gcc/nios2-elf/5.3.0/../../../../../H-x86_64-pc-linux-gnu/nios2-elf/lib/libc.a(lib_a-__call_atexit.o)
